
sobel.elf:     file format elf32-littlenios2
sobel.elf
architecture: nios2:r1, flags 0x00000112:
EXEC_P, HAS_SYMS, D_PAGED
start address 0x00000244

Program Header:
    LOAD off    0x00001000 vaddr 0x00000000 paddr 0x00000000 align 2**12
         filesz 0x00000020 memsz 0x00000020 flags r-x
    LOAD off    0x00001020 vaddr 0x00000020 paddr 0x00000020 align 2**12
         filesz 0x000116fc memsz 0x000116fc flags r-x
    LOAD off    0x0001271c vaddr 0x0001171c paddr 0x00013208 align 2**12
         filesz 0x00001aec memsz 0x00001aec flags rw-
    LOAD off    0x00014cf4 vaddr 0x00014cf4 paddr 0x00014cf4 align 2**12
         filesz 0x00000000 memsz 0x00000190 flags rw-

Sections:
Idx Name          Size      VMA       LMA       File off  Algn
  0 .entry        00000020  00000000  00000000  00001000  2**5
                  CONTENTS, ALLOC, LOAD, READONLY, CODE
  1 .exceptions   00000224  00000020  00000020  00001020  2**2
                  CONTENTS, ALLOC, LOAD, READONLY, CODE
  2 .text         00010d38  00000244  00000244  00001244  2**2
                  CONTENTS, ALLOC, LOAD, READONLY, CODE
  3 .rodata       000007a0  00010f7c  00010f7c  00011f7c  2**2
                  CONTENTS, ALLOC, LOAD, READONLY, DATA
  4 .rwdata       00001aec  0001171c  00013208  0001271c  2**2
                  CONTENTS, ALLOC, LOAD, DATA, SMALL_DATA
  5 .bss          00000190  00014cf4  00014cf4  00014cf4  2**2
                  ALLOC, SMALL_DATA
  6 .sdram_ctrl   00000000  00014e84  00014e84  00014208  2**0
                  CONTENTS
  7 .comment      00000023  00000000  00000000  00014208  2**0
                  CONTENTS, READONLY
  8 .debug_aranges 00000f38  00000000  00000000  00014230  2**3
                  CONTENTS, READONLY, DEBUGGING
  9 .debug_info   000240c4  00000000  00000000  00015168  2**0
                  CONTENTS, READONLY, DEBUGGING
 10 .debug_abbrev 00009359  00000000  00000000  0003922c  2**0
                  CONTENTS, READONLY, DEBUGGING
 11 .debug_line   0000b7bc  00000000  00000000  00042585  2**0
                  CONTENTS, READONLY, DEBUGGING
 12 .debug_frame  00002158  00000000  00000000  0004dd44  2**2
                  CONTENTS, READONLY, DEBUGGING
 13 .debug_str    000038a0  00000000  00000000  0004fe9c  2**0
                  CONTENTS, READONLY, DEBUGGING
 14 .debug_loc    000178c0  00000000  00000000  0005373c  2**0
                  CONTENTS, READONLY, DEBUGGING
 15 .debug_alt_sim_info 00000050  00000000  00000000  0006affc  2**2
                  CONTENTS, READONLY, DEBUGGING
 16 .debug_ranges 000018d8  00000000  00000000  0006b050  2**3
                  CONTENTS, READONLY, DEBUGGING
 17 .thread_model 00000003  00000000  00000000  0007032e  2**0
                  CONTENTS, READONLY
 18 .cpu          0000000c  00000000  00000000  00070331  2**0
                  CONTENTS, READONLY
 19 .qsys         00000001  00000000  00000000  0007033d  2**0
                  CONTENTS, READONLY
 20 .simulation_enabled 00000001  00000000  00000000  0007033e  2**0
                  CONTENTS, READONLY
 21 .sysid_hash   00000004  00000000  00000000  0007033f  2**0
                  CONTENTS, READONLY
 22 .sysid_base   00000004  00000000  00000000  00070343  2**0
                  CONTENTS, READONLY
 23 .sysid_time   00000004  00000000  00000000  00070347  2**0
                  CONTENTS, READONLY
 24 .stderr_dev   00000009  00000000  00000000  0007034b  2**0
                  CONTENTS, READONLY
 25 .stdin_dev    00000009  00000000  00000000  00070354  2**0
                  CONTENTS, READONLY
 26 .stdout_dev   00000009  00000000  00000000  0007035d  2**0
                  CONTENTS, READONLY
 27 .sopc_system_name 0000000b  00000000  00000000  00070366  2**0
                  CONTENTS, READONLY
 28 .quartus_project_dir 00000057  00000000  00000000  00070371  2**0
                  CONTENTS, READONLY
 29 .jdi          00005ad8  00000000  00000000  000703c8  2**0
                  CONTENTS, READONLY
 30 .sopcinfo     000723e4  00000000  00000000  00075ea0  2**0
                  CONTENTS, READONLY
SYMBOL TABLE:
00000000 l    d  .entry	00000000 .entry
00000020 l    d  .exceptions	00000000 .exceptions
00000244 l    d  .text	00000000 .text
00010f7c l    d  .rodata	00000000 .rodata
0001171c l    d  .rwdata	00000000 .rwdata
00014cf4 l    d  .bss	00000000 .bss
00014e84 l    d  .sdram_ctrl	00000000 .sdram_ctrl
00000000 l    d  .comment	00000000 .comment
00000000 l    d  .debug_aranges	00000000 .debug_aranges
00000000 l    d  .debug_info	00000000 .debug_info
00000000 l    d  .debug_abbrev	00000000 .debug_abbrev
00000000 l    d  .debug_line	00000000 .debug_line
00000000 l    d  .debug_frame	00000000 .debug_frame
00000000 l    d  .debug_str	00000000 .debug_str
00000000 l    d  .debug_loc	00000000 .debug_loc
00000000 l    d  .debug_alt_sim_info	00000000 .debug_alt_sim_info
00000000 l    d  .debug_ranges	00000000 .debug_ranges
00000000 l    df *ABS*	00000000 C:/Users/adrie/OneDrive/Documents/HES/Master/TSM_EmbHardw/Labo/mse_demo/software/sobel_bsp//obj/HAL/src/crt0.o
0000027c l       .text	00000000 alt_after_alt_main
00000000 l    df *ABS*	00000000 alt_irq_handler.c
00000000 l    df *ABS*	00000000 alt_instruction_exception_entry.c
00000000 l    df *ABS*	00000000 camera.c
00000000 l    df *ABS*	00000000 dipswitch.c
00000000 l    df *ABS*	00000000 grayscale.c
00000000 l    df *ABS*	00000000 i2c.c
00000000 l    df *ABS*	00000000 lcd_simple.c
00000000 l    df *ABS*	00000000 main.c
00000000 l    df *ABS*	00000000 sobel.c
00000000 l    df *ABS*	00000000 vga.c
00000000 l    df *ABS*	00000000 lib2-divmod.c
00000000 l    df *ABS*	00000000 malloc.c
00000000 l    df *ABS*	00000000 mallocr.c
00000000 l    df *ABS*	00000000 printf.c
00000000 l    df *ABS*	00000000 puts.c
00000000 l    df *ABS*	00000000 sbrkr.c
00000000 l    df *ABS*	00000000 strlen.c
00000000 l    df *ABS*	00000000 vfprintf.c
0001146a l     O .rodata	00000010 zeroes.4404
00004a1c l     F .text	000000bc __sbprintf
0001147a l     O .rodata	00000010 blanks.4403
00000000 l    df *ABS*	00000000 wsetup.c
00000000 l    df *ABS*	00000000 dtoa.c
00004c2c l     F .text	00000200 quorem
00000000 l    df *ABS*	00000000 fflush.c
00000000 l    df *ABS*	00000000 findfp.c
0000675c l     F .text	00000008 __fp_unlock
00006770 l     F .text	0000019c __sinit.part.1
0000690c l     F .text	00000008 __fp_lock
00000000 l    df *ABS*	00000000 mallocr.c
00000000 l    df *ABS*	00000000 fvwrite.c
00000000 l    df *ABS*	00000000 fwalk.c
00000000 l    df *ABS*	00000000 impure.c
00011b24 l     O .rwdata	00000424 impure_data
00000000 l    df *ABS*	00000000 int_errno.c
00000000 l    df *ABS*	00000000 locale.c
00011f68 l     O .rwdata	00000020 lc_ctype_charset
00011f48 l     O .rwdata	00000020 lc_message_charset
00011f88 l     O .rwdata	00000038 lconv
00000000 l    df *ABS*	00000000 makebuf.c
00000000 l    df *ABS*	00000000 memchr.c
00000000 l    df *ABS*	00000000 memcpy.c
00000000 l    df *ABS*	00000000 memmove.c
00000000 l    df *ABS*	00000000 memset.c
00000000 l    df *ABS*	00000000 mprec.c
000114ac l     O .rodata	0000000c p05.2768
00000000 l    df *ABS*	00000000 mallocr.c
00000000 l    df *ABS*	00000000 s_fpclassify.c
00000000 l    df *ABS*	00000000 stdio.c
00000000 l    df *ABS*	00000000 strcmp.c
00000000 l    df *ABS*	00000000 vfprintf.c
000094a8 l     F .text	000000fc __sprint_r.part.0
000115e0 l     O .rodata	00000010 blanks.4348
000115d0 l     O .rodata	00000010 zeroes.4349
0000aa34 l     F .text	000000bc __sbprintf
00000000 l    df *ABS*	00000000 writer.c
00000000 l    df *ABS*	00000000 closer.c
00000000 l    df *ABS*	00000000 mallocr.c
00000000 l    df *ABS*	00000000 fclose.c
00000000 l    df *ABS*	00000000 fputwc.c
00000000 l    df *ABS*	00000000 fstatr.c
00000000 l    df *ABS*	00000000 isattyr.c
00000000 l    df *ABS*	00000000 lseekr.c
00000000 l    df *ABS*	00000000 readr.c
00000000 l    df *ABS*	00000000 wbuf.c
00000000 l    df *ABS*	00000000 wcrtomb.c
00000000 l    df *ABS*	00000000 wctomb_r.c
00000000 l    df *ABS*	00000000 libgcc2.c
00000000 l    df *ABS*	00000000 libgcc2.c
00000000 l    df *ABS*	00000000 adddf3.c
00000000 l    df *ABS*	00000000 divdf3.c
00000000 l    df *ABS*	00000000 eqdf2.c
00000000 l    df *ABS*	00000000 gedf2.c
00000000 l    df *ABS*	00000000 ledf2.c
00000000 l    df *ABS*	00000000 muldf3.c
00000000 l    df *ABS*	00000000 subdf3.c
00000000 l    df *ABS*	00000000 fixdfsi.c
00000000 l    df *ABS*	00000000 floatsidf.c
00000000 l    df *ABS*	00000000 floatunsidf.c
00000000 l    df *ABS*	00000000 libgcc2.c
00000000 l    df *ABS*	00000000 libgcc2.c
00000000 l    df *ABS*	00000000 alt_close.c
0000e53c l     F .text	0000003c alt_get_errno
00000000 l    df *ABS*	00000000 alt_dev.c
0000e648 l     F .text	0000002c alt_dev_null_write
00000000 l    df *ABS*	00000000 alt_errno.c
00000000 l    df *ABS*	00000000 alt_fstat.c
0000e674 l     F .text	0000003c alt_get_errno
00000000 l    df *ABS*	00000000 alt_isatty.c
0000e760 l     F .text	0000003c alt_get_errno
00000000 l    df *ABS*	00000000 alt_load.c
0000e840 l     F .text	00000068 alt_load_section
00000000 l    df *ABS*	00000000 alt_lseek.c
0000e92c l     F .text	0000003c alt_get_errno
00000000 l    df *ABS*	00000000 alt_main.c
00000000 l    df *ABS*	00000000 alt_malloc_lock.c
00000000 l    df *ABS*	00000000 alt_read.c
0000eb00 l     F .text	0000003c alt_get_errno
00000000 l    df *ABS*	00000000 alt_release_fd.c
00000000 l    df *ABS*	00000000 alt_sbrk.c
000131f8 l     O .rwdata	00000004 heap_end
00000000 l    df *ABS*	00000000 alt_usleep.c
00000000 l    df *ABS*	00000000 alt_write.c
0000ed7c l     F .text	0000003c alt_get_errno
00000000 l    df *ABS*	00000000 alt_sys_init.c
0000eeb0 l     F .text	00000034 alt_dev_reg
00012168 l     O .rwdata	00001060 jtag_uart
00000000 l    df *ABS*	00000000 altera_avalon_jtag_uart_fd.c
00000000 l    df *ABS*	00000000 altera_avalon_jtag_uart_init.c
0000f1bc l     F .text	0000020c altera_avalon_jtag_uart_irq
0000f3c8 l     F .text	000000a0 altera_avalon_jtag_uart_timeout
00000000 l    df *ABS*	00000000 altera_avalon_jtag_uart_ioctl.c
00000000 l    df *ABS*	00000000 altera_avalon_jtag_uart_read.c
00000000 l    df *ABS*	00000000 altera_avalon_jtag_uart_write.c
00000000 l    df *ABS*	00000000 altera_avalon_timer_sc.c
0000fa00 l     F .text	00000078 alt_avalon_timer_sc_irq
00000000 l    df *ABS*	00000000 altera_avalon_timer_ts.c
00000000 l    df *ABS*	00000000 altera_avalon_timer_vars.c
00000000 l    df *ABS*	00000000 alt_alarm_start.c
00000000 l    df *ABS*	00000000 alt_busy_sleep.c
00000000 l    df *ABS*	00000000 alt_dcache_flush_all.c
00000000 l    df *ABS*	00000000 alt_dev_llist_insert.c
0000feb0 l     F .text	0000003c alt_get_errno
00000000 l    df *ABS*	00000000 alt_do_ctors.c
00000000 l    df *ABS*	00000000 alt_do_dtors.c
00000000 l    df *ABS*	00000000 alt_icache_flush_all.c
00000000 l    df *ABS*	00000000 alt_iic.c
00000000 l    df *ABS*	00000000 alt_iic_isr_register.c
00000000 l    df *ABS*	00000000 alt_io_redirect.c
00010324 l     F .text	000000c4 alt_open_fd
00000000 l    df *ABS*	00000000 alt_irq_vars.c
00000000 l    df *ABS*	00000000 alt_open.c
00010464 l     F .text	0000003c alt_get_errno
000104a0 l     F .text	000000c4 alt_file_locked
00000000 l    df *ABS*	00000000 alt_tick.c
00000000 l    df *ABS*	00000000 altera_nios2_gen2_irq.c
00000000 l    df *ABS*	00000000 alt_find_dev.c
00000000 l    df *ABS*	00000000 alt_find_file.c
00000000 l    df *ABS*	00000000 alt_get_fd.c
00000000 l    df *ABS*	00000000 alt_icache_flush.c
00000000 l    df *ABS*	00000000 atexit.c
00000000 l    df *ABS*	00000000 exit.c
00000000 l    df *ABS*	00000000 memcmp.c
00000000 l    df *ABS*	00000000 __atexit.c
00000000 l    df *ABS*	00000000 __call_atexit.c
00000000 l    df *ABS*	00000000 alt_exit.c
00014d58 g     O .bss	00000004 alt_instruction_exception_handler
00008b40 g     F .text	00000074 _mprec_log10
00001a54 g     F .text	00000170 sobel
00008c2c g     F .text	0000008c __any_on
0000afd0 g     F .text	00000054 _isatty_r
000114b8 g     O .rodata	00000028 __mprec_tinytens
0000ea3c g     F .text	0000007c alt_main
00002648 g     F .text	000000c0 _puts_r
00014d84 g     O .bss	00000100 alt_irq
0000b024 g     F .text	00000060 _lseek_r
00011416 g     O .rodata	00000009 gy_array
00013208 g       *ABS*	00000000 __flash_rwdata_start
0000d068 g     F .text	00000088 .hidden __eqdf2
00014e84 g       *ABS*	00000000 __alt_heap_start
0000260c g     F .text	0000003c printf
0000b23c g     F .text	0000009c _wcrtomb_r
00009368 g     F .text	0000005c __sseek
00006aac g     F .text	00000010 __sinit
0000b0e4 g     F .text	00000140 __swbuf_r
00007574 g     F .text	0000007c _setlocale_r
00006914 g     F .text	00000068 __sfmoreglue
0000eadc g     F .text	00000024 __malloc_unlock
00000a00 g     F .text	00000014 LCD_Write_Command
00014d04 g     O .bss	00000004 sobel_width
00014d48 g     O .bss	00000004 altera_avalon_timer_ts_freq
00007a38 g     F .text	0000015c memmove
00000a14 g     F .text	00000014 LCD_Write_Data
00006a94 g     F .text	00000018 _cleanup
00007cbc g     F .text	000000a8 _Balloc
0000d0f0 g     F .text	000000dc .hidden __gtdf2
0001085c g     F .text	00000024 altera_nios2_gen2_irq_init
00000000 g     F .entry	0000001c __reset
00000020 g       *ABS*	00000000 __flash_exceptions_start
00000598 g     F .text	00000024 cam_get_xsize
0000af74 g     F .text	0000005c _fstat_r
00014d28 g     O .bss	00000004 errno
000092e4 g     F .text	00000008 __seofread
00014d3c g     O .bss	00000004 alt_argv
0001b1c8 g       *ABS*	00000000 _gp
0000ed4c g     F .text	00000030 usleep
00000658 g     F .text	00000074 cam_set_image_pointer
00011fe8 g     O .rwdata	00000180 alt_fd_list
00001bd4 g     F .text	00000010 vga_set_pointer
00010880 g     F .text	00000090 alt_find_dev
000078f0 g     F .text	00000148 memcpy
00006764 g     F .text	0000000c _cleanup_r
0000e354 g     F .text	000000dc .hidden __floatsidf
000103e8 g     F .text	0000007c alt_io_redirect
0000d1cc g     F .text	000000f4 .hidden __ltdf2
00010f7c g       *ABS*	00000000 __DTOR_END__
00002708 g     F .text	00000014 puts
00010b4c g     F .text	0000009c alt_exception_cause_generated_bad_addr
0000921c g     F .text	00000074 __fpclassifyd
00008a9c g     F .text	000000a4 __ratio
0000aa18 g     F .text	0000001c __vfiprintf_internal
0000f5c0 g     F .text	0000021c altera_avalon_jtag_uart_read
00001da8 g     F .text	00000014 malloc
000025dc g     F .text	00000030 _printf_r
00000854 g     F .text	00000008 get_grayscale_picture
00001cec g     F .text	00000064 .hidden __udivsi3
00010fdc g     O .rodata	00000128 lens_roll_off_tbl
00000280 g     F .text	00000318 init_camera
0000e79c g     F .text	000000a4 isatty
00011508 g     O .rodata	000000c8 __mprec_tens
000075f0 g     F .text	0000000c __locale_charset
00010abc g     F .text	00000090 alt_icache_flush
00014d24 g     O .bss	00000004 __malloc_top_pad
000131d8 g     O .rwdata	00000004 __mb_cur_max
00007620 g     F .text	0000000c _localeconv_r
000014c0 g     F .text	00000100 sobel_x
000080c8 g     F .text	0000003c __i2b
00006f30 g     F .text	000004bc __sfvwrite_r
00000a28 g     F .text	00000414 init_LCD
0000271c g     F .text	00000054 _sbrk_r
000005e0 g     F .text	00000078 cam_get_profiling
0000b084 g     F .text	00000060 _read_r
00014d08 g     O .bss	00000004 sobel_result
000131f0 g     O .rwdata	00000004 alt_max_fd
0000ac68 g     F .text	000000f0 _fclose_r
0000672c g     F .text	00000030 fflush
00014d20 g     O .bss	00000004 __malloc_max_sbrked_mem
00014cfc g     O .bss	00000004 grayscale_array
0000bed4 g     F .text	000008ac .hidden __adddf3
000005bc g     F .text	00000024 cam_get_ysize
00008844 g     F .text	0000010c __b2d
0000b99c g     F .text	00000538 .hidden __umoddi3
0000e968 g     F .text	000000d4 lseek
0000091c g     F .text	0000008c i2c_short_read
000131d0 g     O .rwdata	00000004 _global_impure_ptr
00008cb8 g     F .text	00000564 _realloc_r
00014e84 g       *ABS*	00000000 __bss_end
00010234 g     F .text	000000f0 alt_iic_isr_register
00010754 g     F .text	00000108 alt_tick
0000b424 g     F .text	00000578 .hidden __udivdi3
0000aed0 g     F .text	00000024 _fputwc_r
000114e0 g     O .rodata	00000028 __mprec_bigtens
00007eac g     F .text	00000104 __s2b
0000e430 g     F .text	000000a8 .hidden __floatunsidf
00008584 g     F .text	00000060 __mcmp
00006acc g     F .text	00000018 __fp_lock_all
000101e8 g     F .text	0000004c alt_ic_irq_enabled
00014cf4 g     O .bss	00000004 grayscape_height
000106b8 g     F .text	0000009c alt_alarm_stop
00014d4c g     O .bss	00000004 alt_irq_active
000000fc g     F .exceptions	000000d4 alt_irq_handler
00011fc0 g     O .rwdata	00000028 alt_dev_null
00000ec8 g     F .text	00000078 transfer_LCD_with_dma
0000fe90 g     F .text	00000020 alt_dcache_flush_all
00007fb0 g     F .text	00000068 __hi0bits
0000e2d4 g     F .text	00000080 .hidden __fixdfsi
00013208 g       *ABS*	00000000 __ram_rwdata_end
000131e8 g     O .rwdata	00000008 alt_dev_list
0000edb8 g     F .text	000000f8 write
0000fbec g     F .text	00000020 alt_timestamp_freq
0001171c g       *ABS*	00000000 __ram_rodata_end
0000e6b0 g     F .text	000000b0 fstat
0000d1cc g     F .text	000000f4 .hidden __ledf2
000082fc g     F .text	00000140 __pow5mult
000095bc g     F .text	0000145c ___vfiprintf_internal_r
00014d34 g     O .bss	00000004 __nlocale_changed
00001d50 g     F .text	00000058 .hidden __umodsi3
00001bc4 g     F .text	00000008 GetSobel_rgb
00014e84 g       *ABS*	00000000 end
00001bcc g     F .text	00000008 GetSobelResult
000006f0 g     F .text	00000020 take_picture_blocking
00000750 g     F .text	00000014 DIPSW_get_value
00001838 g     F .text	00000168 sobel_y_with_rgb
0000f0fc g     F .text	000000c0 altera_avalon_jtag_uart_init
000001d0 g     F .exceptions	00000074 alt_instruction_exception_entry
000006e0 g     F .text	00000010 current_image_pointer
00010f7c g       *ABS*	00000000 __CTOR_LIST__
01000000 g       *ABS*	00000000 __alt_stack_pointer
0000fa78 g     F .text	0000007c alt_avalon_timer_sc_init
0000e4d8 g     F .text	00000064 .hidden __clzsi2
0000f7dc g     F .text	00000224 altera_avalon_jtag_uart_write
00006abc g     F .text	00000004 __sfp_lock_acquire
0000780c g     F .text	000000e4 memchr
00002808 g     F .text	000021f8 ___vfprintf_internal_r
00006c20 g     F .text	00000310 _free_r
000075fc g     F .text	00000010 __locale_mb_cur_max
0000173c g     F .text	000000fc sobel_y
00011104 g     O .rodata	00000140 noise_reduction_reg_settings_array
00010dc8 g     F .text	00000180 __call_exitprocs
00014d30 g     O .bss	00000004 __mlocale_changed
000131c8 g     O .rwdata	00000004 __malloc_sbrk_base
00000244 g     F .text	0000003c _start
00014d50 g     O .bss	00000004 _alt_tick_rate
0000843c g     F .text	00000148 __lshift
00014d54 g     O .bss	00000004 _alt_nticks
0000eb3c g     F .text	000000fc read
0000ef1c g     F .text	0000007c alt_sys_init
000015c0 g     F .text	0000017c sobel_x_with_rgb
00010cb0 g     F .text	00000118 __register_exitproc
00008104 g     F .text	000001f8 __multiply
0000f468 g     F .text	00000068 altera_avalon_jtag_uart_close
0001171c g       *ABS*	00000000 __ram_rwdata_start
00010f7c g       *ABS*	00000000 __ram_rodata_start
00014d5c g     O .bss	00000028 __malloc_current_mallinfo
00008950 g     F .text	0000014c __d2b
00014d0c g     O .bss	00000004 sobel_height
00000710 g     F .text	00000014 enable_continues_mode
0000ef98 g     F .text	00000060 altera_avalon_jtag_uart_read_fd
00001320 g     F .text	000000e4 init_sobel_arrays
00010a18 g     F .text	000000a4 alt_get_fd
0000fd38 g     F .text	00000158 alt_busy_sleep
00000000 g       *ABS*	00000000 __alt_mem_sdram_ctrl
0000ab50 g     F .text	00000054 _close_r
00010c34 g     F .text	0000007c memcmp
0000f058 g     F .text	00000050 altera_avalon_jtag_uart_close_fd
00014e84 g       *ABS*	00000000 __alt_stack_base
0000f0a8 g     F .text	00000054 altera_avalon_jtag_uart_ioctl_fd
00004ad8 g     F .text	00000154 __swsetup_r
0000c780 g     F .text	000008e8 .hidden __divdf3
0000697c g     F .text	00000118 __sfp
00008bb4 g     F .text	00000078 __copybits
0001171c g     O .rwdata	00000408 __malloc_av_
00006ac8 g     F .text	00000004 __sinit_lock_release
0000d2c0 g     F .text	00000718 .hidden __muldf3
00009290 g     F .text	00000054 __sread
00010910 g     F .text	00000108 alt_find_file
0000feec g     F .text	000000a4 alt_dev_llist_insert
0000eab8 g     F .text	00000024 __malloc_lock
0000ec9c g     F .text	000000b0 sbrk
000066d0 g     F .text	0000005c _fflush_r
0000aba4 g     F .text	000000c4 _calloc_r
00014cf4 g       *ABS*	00000000 __bss_start
00007b94 g     F .text	00000128 memset
00000f40 g     F .text	000003e0 main
00014d40 g     O .bss	00000004 alt_envp
00014d1c g     O .bss	00000004 __malloc_max_total_mem
00000844 g     F .text	00000008 get_grayscale_width
0000eff8 g     F .text	00000060 altera_avalon_jtag_uart_write_fd
0000b224 g     F .text	00000018 __swbuf
00014d10 g     O .bss	00000004 sobel_x_result
000093c4 g     F .text	00000008 __sclose
01000000 g       *ABS*	00000000 __alt_heap_limit
0000ad58 g     F .text	00000014 fclose
0000faf4 g     F .text	00000078 alt_timestamp_start
00004e2c g     F .text	00001688 _dtoa_r
00001dd0 g     F .text	0000080c _malloc_r
0000b398 g     F .text	00000030 __ascii_wctomb
000131f4 g     O .rwdata	00000004 alt_errno
000073ec g     F .text	000000c4 _fwalk
00001bf4 g     F .text	00000084 .hidden __divsi3
00006afc g     F .text	00000124 _malloc_trim_r
00010f7c g       *ABS*	00000000 __CTOR_END__
00014cf8 g     O .bss	00000004 grayscale_width
000093cc g     F .text	000000dc strcmp
00000e3c g     F .text	0000008c transfer_LCD_no_dma
00010f7c g       *ABS*	00000000 __flash_rodata_start
00010f7c g       *ABS*	00000000 __DTOR_LIST__
0000d068 g     F .text	00000088 .hidden __nedf2
00011244 g     O .rodata	00000118 preview_snapshot_mode_reg_settings_array
0000eee4 g     F .text	00000038 alt_irq_init
0000ec38 g     F .text	00000064 alt_release_fd
00000874 g     F .text	000000a8 i2c_auto_detect
000115f0 g     O .rodata	00000100 .hidden __clz_tab
000006cc g     F .text	00000014 current_image_valid
00014d2c g     O .bss	00000004 _PathLocale
0000085c g     F .text	00000018 i2c_busy_wait
00010be8 g     F .text	00000014 atexit
0000aaf0 g     F .text	00000060 _write_r
0000762c g     F .text	00000018 setlocale
000131d4 g     O .rwdata	00000004 _impure_ptr
00014d38 g     O .bss	00000004 alt_argc
000064b4 g     F .text	0000021c __sflush_r
00014d44 g     O .bss	00000004 altera_avalon_timer_ts_base
0000fff0 g     F .text	00000060 _do_dtors
00007618 g     F .text	00000008 __locale_cjk_lang
00000020 g       .exceptions	00000000 alt_irq_entry
000087e0 g     F .text	00000064 __ulp
00006ae4 g     F .text	00000018 __fp_unlock_all
000131e0 g     O .rwdata	00000008 alt_fs_list
00014d14 g     O .bss	00000004 sobel_y_result
000009a8 g     F .text	00000058 i2c_short_write
00000020 g       *ABS*	00000000 __ram_exceptions_start
00014d00 g     O .bss	00000002 LCD_height
00007644 g     F .text	0000000c localeconv
0000fb6c g     F .text	00000080 alt_timestamp
00001be4 g     F .text	00000010 vga_set_swap
00010084 g     F .text	00000050 alt_ic_isr_register
000019a0 g     F .text	000000b4 sobel_threshold
00013208 g       *ABS*	00000000 _edata
00014e84 g       *ABS*	00000000 _end
0000ad6c g     F .text	00000164 __fputwc
00000244 g       *ABS*	00000000 __ram_exceptions_end
0000f4d0 g     F .text	000000f0 altera_avalon_jtag_uart_ioctl
0001141f g     O .rodata	00000009 gx_array
0001015c g     F .text	0000008c alt_ic_irq_disable
000092ec g     F .text	0000007c __swrite
000131cc g     O .rwdata	00000004 __malloc_trim_threshold
00014d02 g     O .bss	00000002 LCD_width
00000764 g     F .text	000000e0 conv_grayscale
0000760c g     F .text	0000000c __locale_msgcharset
00010bfc g     F .text	00000038 exit
000074b0 g     F .text	000000c4 _fwalk_reent
000085e4 g     F .text	000001fc __mdiff
00001c78 g     F .text	00000074 .hidden __modsi3
01000000 g       *ABS*	00000000 __alt_data_end
00000020 g     F .exceptions	00000000 alt_exception
00006ac0 g     F .text	00000004 __sfp_lock_release
0000084c g     F .text	00000008 get_grayscale_height
00010f48 g     F .text	00000034 _exit
00001404 g     F .text	000000bc sobel_mac
0000fc0c g     F .text	0000012c alt_alarm_start
00007650 g     F .text	000001bc __smakebuf_r
00014d18 g     O .bss	00000004 sobel_rgb565
00002770 g     F .text	00000098 strlen
00010564 g     F .text	00000154 open
0000d0f0 g     F .text	000000dc .hidden __gedf2
000131dc g     O .rwdata	00000004 __wctomb
000095a4 g     F .text	00000018 __sprint_r
00010050 g     F .text	00000034 alt_icache_flush_all
000131fc g     O .rwdata	00000004 alt_priority_mask
000100d4 g     F .text	00000088 alt_ic_irq_enable
00004a00 g     F .text	0000001c __vfprintf_internal
0000b3c8 g     F .text	0000005c _wctomb_r
0000d9d8 g     F .text	000008fc .hidden __subdf3
00008018 g     F .text	000000b0 __lo0bits
00013200 g     O .rwdata	00000008 alt_alarm_list
0000ff90 g     F .text	00000060 _do_ctors
0000b2d8 g     F .text	000000c0 wcrtomb
0000e578 g     F .text	000000d0 close
0000e8a8 g     F .text	00000084 alt_load
0000aef4 g     F .text	00000080 fputwc
00001dbc g     F .text	00000014 free
00006ac4 g     F .text	00000004 __sinit_lock_acquire
00007d8c g     F .text	00000120 __multadd
00007d64 g     F .text	00000028 _Bfree
00000724 g     F .text	0000002c new_image_available



Disassembly of section .entry:

00000000 <__reset>:
#if NIOS2_ICACHE_SIZE > 0 && defined(ALT_ALLOW_CODE_AT_RESET) && (!defined(ALT_SIM_OPTIMIZE) || defined(NIOS2_ECC_PRESENT))
    /* Assume the instruction cache size is always a power of two. */
#if NIOS2_ICACHE_SIZE > 0x8000
    movhi r2, %hi(NIOS2_ICACHE_SIZE)
#else
    movui r2, NIOS2_ICACHE_SIZE
   0:	00840014 	movui	r2,4096
#endif

0:
    initi r2
   4:	1001483a 	initi	r2
    addi r2, r2, -NIOS2_ICACHE_LINE_SIZE
   8:	10bff804 	addi	r2,r2,-32
    bgt r2, zero, 0b
   c:	00bffd16 	blt	zero,r2,4 <__alt_data_end+0xff000004>
 * Jump to the _start entry point in the .text section if reset code
 * is allowed or if optimizing for RTL simulation.
 */
#if defined(ALT_ALLOW_CODE_AT_RESET) || defined(ALT_SIM_OPTIMIZE)
    /* Jump to the _start entry point in the .text section. */
    movhi r1, %hi(_start)
  10:	00400034 	movhi	at,0
    ori r1, r1, %lo(_start)
  14:	08409114 	ori	at,at,580
    jmp r1
  18:	0800683a 	jmp	at
  1c:	00000000 	call	0 <__reset>

Disassembly of section .exceptions:

00000020 <alt_exception>:

#else /* ALT_EXCEPTION_STACK disabled */
        /* 
         * Reserve space on normal stack for registers about to be pushed.
         */
        addi  sp, sp, -76
  20:	deffed04 	addi	sp,sp,-76
         * documentation for details).
         *
         * Leave a gap in the stack frame at 4(sp) for the muldiv handler to
         * store zero into.
         */
        stw   ra,  0(sp)
  24:	dfc00015 	stw	ra,0(sp)
        stw   r1,   8(sp)
  28:	d8400215 	stw	at,8(sp)
        stw   r2,  12(sp)
  2c:	d8800315 	stw	r2,12(sp)
        stw   r3,  16(sp)
  30:	d8c00415 	stw	r3,16(sp)
        stw   r4,  20(sp)
  34:	d9000515 	stw	r4,20(sp)
        stw   r5,  24(sp)
  38:	d9400615 	stw	r5,24(sp)
        stw   r6,  28(sp)
  3c:	d9800715 	stw	r6,28(sp)
        stw   r7,  32(sp)
  40:	d9c00815 	stw	r7,32(sp)
        rdctl r5, estatus   /* Read early to avoid usage stall */
  44:	000b307a 	rdctl	r5,estatus
        stw   r8,  36(sp)
  48:	da000915 	stw	r8,36(sp)
        stw   r9,  40(sp)
  4c:	da400a15 	stw	r9,40(sp)
        stw   r10, 44(sp)
  50:	da800b15 	stw	r10,44(sp)
        stw   r11, 48(sp)
  54:	dac00c15 	stw	r11,48(sp)
        stw   r12, 52(sp)
  58:	db000d15 	stw	r12,52(sp)
        stw   r13, 56(sp)
  5c:	db400e15 	stw	r13,56(sp)
        stw   r14, 60(sp)
  60:	db800f15 	stw	r14,60(sp)
        stw   r15, 64(sp)
  64:	dbc01015 	stw	r15,64(sp)
        /*
         * ea-4 contains the address of the instruction being executed
         * when the exception occured. For interrupt exceptions, we will
         * will be re-issue the isntruction. Store it in 72(sp)
         */
        stw   r5,  68(sp)  /* estatus */
  68:	d9401115 	stw	r5,68(sp)
        addi  r15, ea, -4  /* instruction that caused exception */
  6c:	ebffff04 	addi	r15,ea,-4
        stw   r15,  72(sp)
  70:	dbc01215 	stw	r15,72(sp)
#else
        /*
         * Test to see if the exception was a software exception or caused 
         * by an external interrupt, and vector accordingly.
         */
        rdctl r4, ipending
  74:	0009313a 	rdctl	r4,ipending
        andi  r2, r5, 1
  78:	2880004c 	andi	r2,r5,1
        beq   r2, zero, .Lnot_irq
  7c:	10000326 	beq	r2,zero,8c <alt_exception+0x6c>
        beq   r4, zero, .Lnot_irq
  80:	20000226 	beq	r4,zero,8c <alt_exception+0x6c>
        /*
         * Now that all necessary registers have been preserved, call 
         * alt_irq_handler() to process the interrupts.
         */

        call alt_irq_handler
  84:	00000fc0 	call	fc <alt_irq_handler>

        .section .exceptions.irqreturn, "xa"

        br    .Lexception_exit
  88:	00000706 	br	a8 <alt_exception+0x88>
         * upon completion, so we write ea (address of instruction *after*
         * the one where the exception occured) into 72(sp). The actual
         * instruction that caused the exception is written in r2, which these
         * handlers will utilize.
         */
        stw ea, 72(sp) /* EA is PC+4 so will skip over instruction causing exception */
  8c:	df401215 	stw	ea,72(sp)
.Lunknown_16bit:
        addi.n r4, r4, 2 /* Need PC+2 to skip over instruction causing exception */
        stw r4, 72(sp)

#else /* CDX is not Enabled and all instructions are 32bits */
        ldw r2, -4(ea) /* Instruction value that caused exception */
  90:	e8bfff17 	ldw	r2,-4(ea)
         * debugger is present) or go into an infinite loop since the
         * handling behavior is undefined; in that case we will not return here.
         */

        /* Load exception-causing address as first argument (r4) */
        addi   r4, ea, -4
  94:	e93fff04 	addi	r4,ea,-4

        /* Call the instruction-exception entry */
        call   alt_instruction_exception_entry
  98:	00001d00 	call	1d0 <alt_instruction_exception_entry>
         * instruction
         *
         * Return code was 0: Skip. The instruction after the exception is
         * already stored in 72(sp).
         */
        bne   r2, r0, .Lexception_exit
  9c:	1000021e 	bne	r2,zero,a8 <alt_exception+0x88>

        /*
         * Otherwise, modify 72(sp) to re-issue the instruction that caused the
         * exception.
         */
        addi  r15, ea, -4  /* instruction that caused exception */
  a0:	ebffff04 	addi	r15,ea,-4
        stw   r15,  72(sp)
  a4:	dbc01215 	stw	r15,72(sp)
        /* 
         * Restore the saved registers, so that all general purpose registers 
         * have been restored to their state at the time the interrupt occured.
         */

        ldw   r5,  68(sp)
  a8:	d9401117 	ldw	r5,68(sp)
        ldw   ea,  72(sp)  /* This becomes the PC once eret is executed */
  ac:	df401217 	ldw	ea,72(sp)
        ldw   ra,   0(sp)
  b0:	dfc00017 	ldw	ra,0(sp)

        wrctl estatus, r5
  b4:	2801707a 	wrctl	estatus,r5

        ldw   r1,   8(sp)
  b8:	d8400217 	ldw	at,8(sp)
        ldw   r2,  12(sp)
  bc:	d8800317 	ldw	r2,12(sp)
        ldw   r3,  16(sp)
  c0:	d8c00417 	ldw	r3,16(sp)
        ldw   r4,  20(sp)
  c4:	d9000517 	ldw	r4,20(sp)
        ldw   r5,  24(sp)
  c8:	d9400617 	ldw	r5,24(sp)
        ldw   r6,  28(sp)
  cc:	d9800717 	ldw	r6,28(sp)
        ldw   r7,  32(sp)
  d0:	d9c00817 	ldw	r7,32(sp)

#if defined(ALT_EXCEPTION_STACK) && defined(ALT_STACK_CHECK)
        ldw   et, %gprel(alt_exception_old_stack_limit)(gp)
#endif

        ldw   r8,  36(sp)
  d4:	da000917 	ldw	r8,36(sp)
        ldw   r9,  40(sp)
  d8:	da400a17 	ldw	r9,40(sp)
        ldw   r10, 44(sp)
  dc:	da800b17 	ldw	r10,44(sp)
        ldw   r11, 48(sp)
  e0:	dac00c17 	ldw	r11,48(sp)
        ldw   r12, 52(sp)
  e4:	db000d17 	ldw	r12,52(sp)
        ldw   r13, 56(sp)
  e8:	db400e17 	ldw	r13,56(sp)
        ldw   r14, 60(sp)
  ec:	db800f17 	ldw	r14,60(sp)
        ldw   r15, 64(sp)
  f0:	dbc01017 	ldw	r15,64(sp)
        stw   et, %gprel(alt_stack_limit_value)(gp)
        stw   zero, %gprel(alt_exception_old_stack_limit)(gp)
#endif /* ALT_STACK_CHECK */
        ldw   sp,  76(sp)
#else /* ALT_EXCEPTION_STACK disabled */
        addi  sp, sp, 76
  f4:	dec01304 	addi	sp,sp,76

        /*
         * Return to the interrupted instruction.
         */

        eret
  f8:	ef80083a 	eret

000000fc <alt_irq_handler>:
 * instruction is present if the macro ALT_CI_INTERRUPT_VECTOR defined.
 */

void alt_irq_handler (void) __attribute__ ((section (".exceptions")));
void alt_irq_handler (void)
{
  fc:	defff904 	addi	sp,sp,-28
 100:	dfc00615 	stw	ra,24(sp)
 104:	df000515 	stw	fp,20(sp)
 108:	df000504 	addi	fp,sp,20
  
  /*
   * Notify the operating system that we are at interrupt level.
   */ 
  
  ALT_OS_INT_ENTER();
 10c:	0001883a 	nop
#ifndef NIOS2_EIC_PRESENT
static ALT_INLINE alt_u32 ALT_ALWAYS_INLINE alt_irq_pending (void)
{
  alt_u32 active;

  NIOS2_READ_IPENDING (active);
 110:	0005313a 	rdctl	r2,ipending
 114:	e0bffe15 	stw	r2,-8(fp)

  return active;
 118:	e0bffe17 	ldw	r2,-8(fp)
   * Consider the case where the high priority interupt is asserted during
   * the interrupt entry sequence for a lower priority interrupt to see why
   * this is the case.
   */

  active = alt_irq_pending ();
 11c:	e0bffb15 	stw	r2,-20(fp)

  do
  {
    i = 0;
 120:	e03ffd15 	stw	zero,-12(fp)
    mask = 1;
 124:	00800044 	movi	r2,1
 128:	e0bffc15 	stw	r2,-16(fp)
     * called to clear the interrupt condition.
     */

    do
    {
      if (active & mask)
 12c:	e0fffb17 	ldw	r3,-20(fp)
 130:	e0bffc17 	ldw	r2,-16(fp)
 134:	1884703a 	and	r2,r3,r2
 138:	10001426 	beq	r2,zero,18c <alt_irq_handler+0x90>
      { 
#ifdef ALT_ENHANCED_INTERRUPT_API_PRESENT
        alt_irq[i].handler(alt_irq[i].context); 
 13c:	00800074 	movhi	r2,1
 140:	10936104 	addi	r2,r2,19844
 144:	e0fffd17 	ldw	r3,-12(fp)
 148:	180690fa 	slli	r3,r3,3
 14c:	10c5883a 	add	r2,r2,r3
 150:	10c00017 	ldw	r3,0(r2)
 154:	00800074 	movhi	r2,1
 158:	10936104 	addi	r2,r2,19844
 15c:	e13ffd17 	ldw	r4,-12(fp)
 160:	200890fa 	slli	r4,r4,3
 164:	1105883a 	add	r2,r2,r4
 168:	10800104 	addi	r2,r2,4
 16c:	10800017 	ldw	r2,0(r2)
 170:	1009883a 	mov	r4,r2
 174:	183ee83a 	callr	r3
#else
        alt_irq[i].handler(alt_irq[i].context, i); 
#endif
        break;
 178:	0001883a 	nop
#ifndef NIOS2_EIC_PRESENT
static ALT_INLINE alt_u32 ALT_ALWAYS_INLINE alt_irq_pending (void)
{
  alt_u32 active;

  NIOS2_READ_IPENDING (active);
 17c:	0005313a 	rdctl	r2,ipending
 180:	e0bfff15 	stw	r2,-4(fp)

  return active;
 184:	e0bfff17 	ldw	r2,-4(fp)
 188:	00000706 	br	1a8 <alt_irq_handler+0xac>
      }
      mask <<= 1;
 18c:	e0bffc17 	ldw	r2,-16(fp)
 190:	1085883a 	add	r2,r2,r2
 194:	e0bffc15 	stw	r2,-16(fp)
      i++;
 198:	e0bffd17 	ldw	r2,-12(fp)
 19c:	10800044 	addi	r2,r2,1
 1a0:	e0bffd15 	stw	r2,-12(fp)

    } while (1);
 1a4:	003fe106 	br	12c <__alt_data_end+0xff00012c>

    active = alt_irq_pending ();
 1a8:	e0bffb15 	stw	r2,-20(fp)
    
  } while (active);
 1ac:	e0bffb17 	ldw	r2,-20(fp)
 1b0:	103fdb1e 	bne	r2,zero,120 <__alt_data_end+0xff000120>

  /*
   * Notify the operating system that interrupt processing is complete.
   */ 

  ALT_OS_INT_EXIT();
 1b4:	0001883a 	nop
}
 1b8:	0001883a 	nop
 1bc:	e037883a 	mov	sp,fp
 1c0:	dfc00117 	ldw	ra,4(sp)
 1c4:	df000017 	ldw	fp,0(sp)
 1c8:	dec00204 	addi	sp,sp,8
 1cc:	f800283a 	ret

000001d0 <alt_instruction_exception_entry>:
 * that handler if it has been registered. Absent a handler, it will
 * break break or hang as discussed below.
 */
int 
alt_instruction_exception_entry (alt_u32 exception_pc)
{
 1d0:	defffb04 	addi	sp,sp,-20
 1d4:	dfc00415 	stw	ra,16(sp)
 1d8:	df000315 	stw	fp,12(sp)
 1dc:	df000304 	addi	fp,sp,12
 1e0:	e13fff15 	stw	r4,-4(fp)
 * NIOS2_EXCEPTION_CAUSE_NOT_PRESENT. Your handling routine should
 * check the validity of the cause argument before proceeding.
 */
#ifdef NIOS2_HAS_EXTRA_EXCEPTION_INFO
  /* Get exception cause & "badaddr" */
  NIOS2_READ_EXCEPTION(cause);
 1e4:	000531fa 	rdctl	r2,exception
 1e8:	e0bffd15 	stw	r2,-12(fp)
  cause = ( (cause & NIOS2_EXCEPTION_REG_CAUSE_MASK) >>
 1ec:	e0bffd17 	ldw	r2,-12(fp)
 1f0:	10801f0c 	andi	r2,r2,124
 1f4:	1004d0ba 	srli	r2,r2,2
 1f8:	e0bffd15 	stw	r2,-12(fp)
              NIOS2_EXCEPTION_REG_CAUSE_OFST );

  NIOS2_READ_BADADDR(badaddr);
 1fc:	0005333a 	rdctl	r2,badaddr
 200:	e0bffe15 	stw	r2,-8(fp)
#else
  cause = NIOS2_EXCEPTION_CAUSE_NOT_PRESENT;
  badaddr = 0;
#endif /* NIOS2_HAS_EXTRA_EXCEPTION_INFO */

  if(alt_instruction_exception_handler) {
 204:	d0a6e417 	ldw	r2,-25712(gp)
 208:	10000726 	beq	r2,zero,228 <alt_instruction_exception_entry+0x58>
     * Call handler. Its return value indicates whether the exception-causing
     * instruction should be re-issued. The code that called us,
     * alt_eceptions_entry.S, will look at this value and adjust the ea
     * register as necessary
     */
    return alt_instruction_exception_handler(cause, exception_pc, badaddr);
 20c:	d0a6e417 	ldw	r2,-25712(gp)
 210:	e0fffd17 	ldw	r3,-12(fp)
 214:	e1bffe17 	ldw	r6,-8(fp)
 218:	e17fff17 	ldw	r5,-4(fp)
 21c:	1809883a 	mov	r4,r3
 220:	103ee83a 	callr	r2
 224:	00000206 	br	230 <alt_instruction_exception_entry+0x60>
   *    (a peripheral which negates its interrupt output before its
   *    interrupt handler has been executed will cause spurious interrupts)
   */
  else {
#ifdef NIOS2_HAS_DEBUG_STUB
    NIOS2_BREAK();
 228:	003da03a 	break	0
      ;
#endif /* NIOS2_HAS_DEBUG_STUB */
  }

  /* We should not get here. Remove compiler warning. */
  return NIOS2_EXCEPTION_RETURN_REISSUE_INST;
 22c:	0005883a 	mov	r2,zero
}
 230:	e037883a 	mov	sp,fp
 234:	dfc00117 	ldw	ra,4(sp)
 238:	df000017 	ldw	fp,0(sp)
 23c:	dec00204 	addi	sp,sp,8
 240:	f800283a 	ret

Disassembly of section .text:

00000244 <_start>:

    /*
     * Now that the caches are initialized, set up the stack pointer and global pointer.
     * The values provided by the linker are assumed to be correctly aligned.
     */
    movhi sp, %hi(__alt_stack_pointer)
     244:	06c04034 	movhi	sp,256
    ori sp, sp, %lo(__alt_stack_pointer)
     248:	dec00014 	ori	sp,sp,0
    movhi gp, %hi(_gp)
     24c:	06800074 	movhi	gp,1
    ori gp, gp, %lo(_gp)
     250:	d6ac7214 	ori	gp,gp,45512
 */
#ifndef ALT_SIM_OPTIMIZE
    /* Log that the BSS is about to be cleared. */
    ALT_LOG_PUTS(alt_log_msg_bss)

    movhi r2, %hi(__bss_start)
     254:	00800074 	movhi	r2,1
    ori r2, r2, %lo(__bss_start)
     258:	10933d14 	ori	r2,r2,19700

    movhi r3, %hi(__bss_end)
     25c:	00c00074 	movhi	r3,1
    ori r3, r3, %lo(__bss_end)
     260:	18d3a114 	ori	r3,r3,20100

    beq r2, r3, 1f
     264:	10c00326 	beq	r2,r3,274 <_start+0x30>

0:
    stw zero, (r2)
     268:	10000015 	stw	zero,0(r2)
    addi r2, r2, 4
     26c:	10800104 	addi	r2,r2,4
    bltu r2, r3, 0b
     270:	10fffd36 	bltu	r2,r3,268 <__alt_data_end+0xff000268>
     * section aren't defined until alt_load() has been called).
     */
    mov   et, zero
#endif

    call alt_load
     274:	000e8a80 	call	e8a8 <alt_load>

    /* Log that alt_main is about to be called. */
    ALT_LOG_PUTS(alt_log_msg_alt_main)

    /* Call the C entry point. It should never return. */
    call alt_main
     278:	000ea3c0 	call	ea3c <alt_main>

0000027c <alt_after_alt_main>:

    /* Wait in infinite loop in case alt_main does return. */
alt_after_alt_main:
    br alt_after_alt_main
     27c:	003fff06 	br	27c <__alt_data_end+0xff00027c>

00000280 <init_camera>:
     280:	00804034 	movhi	r2,256
     284:	10842744 	addi	r2,r2,4253
     288:	00c00084 	movi	r3,2
     28c:	10c00025 	stbio	r3,0(r2)
     290:	00804034 	movhi	r2,256
     294:	10841304 	addi	r2,r2,4172
     298:	00c00044 	movi	r3,1
     29c:	10c00025 	stbio	r3,0(r2)
     2a0:	008003f4 	movhi	r2,15
     2a4:	10909004 	addi	r2,r2,16960
     2a8:	0001883a 	nop
     2ac:	10bfffc4 	addi	r2,r2,-1
     2b0:	103ffd1e 	bne	r2,zero,2a8 <__alt_data_end+0xff0002a8>
     2b4:	00804034 	movhi	r2,256
     2b8:	10841304 	addi	r2,r2,4172
     2bc:	10000025 	stbio	zero,0(r2)
     2c0:	008003f4 	movhi	r2,15
     2c4:	10909004 	addi	r2,r2,16960
     2c8:	0001883a 	nop
     2cc:	10bfffc4 	addi	r2,r2,-1
     2d0:	103ffd1e 	bne	r2,zero,2c8 <__alt_data_end+0xff0002c8>
     2d4:	defffc04 	addi	sp,sp,-16
     2d8:	01800044 	movi	r6,1
     2dc:	014ce184 	movi	r5,13190
     2e0:	01001e04 	movi	r4,120
     2e4:	dfc00315 	stw	ra,12(sp)
     2e8:	dc800215 	stw	r18,8(sp)
     2ec:	dc400115 	stw	r17,4(sp)
     2f0:	dc000015 	stw	r16,0(sp)
     2f4:	00009a80 	call	9a8 <i2c_short_write>
     2f8:	000d883a 	mov	r6,zero
     2fc:	014ce184 	movi	r5,13190
     300:	01001e04 	movi	r4,120
     304:	00009a80 	call	9a8 <i2c_short_write>
     308:	008003f4 	movhi	r2,15
     30c:	10909004 	addi	r2,r2,16960
     310:	0001883a 	nop
     314:	10bfffc4 	addi	r2,r2,-1
     318:	103ffd1e 	bne	r2,zero,310 <__alt_data_end+0xff000310>
     31c:	01803104 	movi	r6,196
     320:	014c0684 	movi	r5,12314
     324:	01001e04 	movi	r4,120
     328:	00009a80 	call	9a8 <i2c_short_write>
     32c:	01800204 	movi	r6,8
     330:	014c8084 	movi	r5,12802
     334:	01001e04 	movi	r4,120
     338:	00009a80 	call	9a8 <i2c_short_write>
     33c:	0180c744 	movi	r6,797
     340:	014cfd04 	movi	r5,13300
     344:	01001e04 	movi	r4,120
     348:	00009a80 	call	9a8 <i2c_short_write>
     34c:	008000b4 	movhi	r2,2
     350:	10a1a804 	addi	r2,r2,-31072
     354:	0001883a 	nop
     358:	10bfffc4 	addi	r2,r2,-1
     35c:	103ffd1e 	bne	r2,zero,354 <__alt_data_end+0xff000354>
     360:	01a3c254 	movui	r6,36617
     364:	014d0784 	movi	r5,13342
     368:	01001e04 	movi	r4,120
     36c:	00009a80 	call	9a8 <i2c_short_write>
     370:	01805404 	movi	r6,336
     374:	014d0704 	movi	r5,13340
     378:	01001e04 	movi	r4,120
     37c:	00009a80 	call	9a8 <i2c_short_write>
     380:	01a3c254 	movui	r6,36617
     384:	014d0784 	movi	r5,13342
     388:	01001e04 	movi	r4,120
     38c:	00009a80 	call	9a8 <i2c_short_write>
     390:	008000b4 	movhi	r2,2
     394:	10a1a804 	addi	r2,r2,-31072
     398:	0001883a 	nop
     39c:	10bfffc4 	addi	r2,r2,-1
     3a0:	103ffd1e 	bne	r2,zero,398 <__alt_data_end+0xff000398>
     3a4:	04000074 	movhi	r16,1
     3a8:	84049104 	addi	r16,r16,4676
     3ac:	01a3c214 	movui	r6,36616
     3b0:	014d0784 	movi	r5,13342
     3b4:	01001e04 	movi	r4,120
     3b8:	00009a80 	call	9a8 <i2c_short_write>
     3bc:	84400084 	addi	r17,r16,2
     3c0:	84804604 	addi	r18,r16,280
     3c4:	8980000b 	ldhu	r6,0(r17)
     3c8:	8140000b 	ldhu	r5,0(r16)
     3cc:	01001e04 	movi	r4,120
     3d0:	84000104 	addi	r16,r16,4
     3d4:	00009a80 	call	9a8 <i2c_short_write>
     3d8:	8c400104 	addi	r17,r17,4
     3dc:	84bff91e 	bne	r16,r18,3c4 <__alt_data_end+0xff0003c4>
     3e0:	04000074 	movhi	r16,1
     3e4:	84044104 	addi	r16,r16,4356
     3e8:	84400084 	addi	r17,r16,2
     3ec:	84805004 	addi	r18,r16,320
     3f0:	8980000b 	ldhu	r6,0(r17)
     3f4:	8140000b 	ldhu	r5,0(r16)
     3f8:	01001e04 	movi	r4,120
     3fc:	84000104 	addi	r16,r16,4
     400:	00009a80 	call	9a8 <i2c_short_write>
     404:	8c400104 	addi	r17,r17,4
     408:	943ff91e 	bne	r18,r16,3f0 <__alt_data_end+0xff0003f0>
     40c:	018164c4 	movi	r6,1427
     410:	014d6904 	movi	r5,13732
     414:	01001e04 	movi	r4,120
     418:	00009a80 	call	9a8 <i2c_short_write>
     41c:	0189e644 	movi	r6,10137
     420:	014ce304 	movi	r5,13196
     424:	01001e04 	movi	r4,120
     428:	00009a80 	call	9a8 <i2c_short_write>
     42c:	01991004 	movi	r6,25664
     430:	014ce404 	movi	r5,13200
     434:	01001e04 	movi	r4,120
     438:	00009a80 	call	9a8 <i2c_short_write>
     43c:	008000b4 	movhi	r2,2
     440:	10a1a804 	addi	r2,r2,-31072
     444:	0001883a 	nop
     448:	10bfffc4 	addi	r2,r2,-1
     44c:	103ffd1e 	bne	r2,zero,444 <__alt_data_end+0xff000444>
     450:	0189e6c4 	movi	r6,10139
     454:	014ce304 	movi	r5,13196
     458:	01001e04 	movi	r4,120
     45c:	00009a80 	call	9a8 <i2c_short_write>
     460:	01991004 	movi	r6,25664
     464:	014ce404 	movi	r5,13200
     468:	01001e04 	movi	r4,120
     46c:	00009a80 	call	9a8 <i2c_short_write>
     470:	008000b4 	movhi	r2,2
     474:	10a1a804 	addi	r2,r2,-31072
     478:	0001883a 	nop
     47c:	10bfffc4 	addi	r2,r2,-1
     480:	103ffd1e 	bne	r2,zero,478 <__alt_data_end+0xff000478>
     484:	01a840d4 	movui	r6,41219
     488:	014ce304 	movi	r5,13196
     48c:	01001e04 	movi	r4,120
     490:	00009a80 	call	9a8 <i2c_short_write>
     494:	01800144 	movi	r6,5
     498:	014ce404 	movi	r5,13200
     49c:	01001e04 	movi	r4,120
     4a0:	00009a80 	call	9a8 <i2c_short_write>
     4a4:	008000b4 	movhi	r2,2
     4a8:	10a1a804 	addi	r2,r2,-31072
     4ac:	0001883a 	nop
     4b0:	10bfffc4 	addi	r2,r2,-1
     4b4:	103ffd1e 	bne	r2,zero,4ac <__alt_data_end+0xff0004ac>
     4b8:	01a840d4 	movui	r6,41219
     4bc:	014ce304 	movi	r5,13196
     4c0:	01001e04 	movi	r4,120
     4c4:	00009a80 	call	9a8 <i2c_short_write>
     4c8:	01800184 	movi	r6,6
     4cc:	014ce404 	movi	r5,13200
     4d0:	01001e04 	movi	r4,120
     4d4:	00009a80 	call	9a8 <i2c_short_write>
     4d8:	008000b4 	movhi	r2,2
     4dc:	10a1a804 	addi	r2,r2,-31072
     4e0:	0001883a 	nop
     4e4:	10bfffc4 	addi	r2,r2,-1
     4e8:	103ffd1e 	bne	r2,zero,4e0 <__alt_data_end+0xff0004e0>
     4ec:	04000074 	movhi	r16,1
     4f0:	8403f704 	addi	r16,r16,4060
     4f4:	84400084 	addi	r17,r16,2
     4f8:	84804a04 	addi	r18,r16,296
     4fc:	8980000b 	ldhu	r6,0(r17)
     500:	8140000b 	ldhu	r5,0(r16)
     504:	01001e04 	movi	r4,120
     508:	84000104 	addi	r16,r16,4
     50c:	00009a80 	call	9a8 <i2c_short_write>
     510:	8c400104 	addi	r17,r17,4
     514:	943ff91e 	bne	r18,r16,4fc <__alt_data_end+0xff0004fc>
     518:	008003f4 	movhi	r2,15
     51c:	10909004 	addi	r2,r2,16960
     520:	0001883a 	nop
     524:	10bfffc4 	addi	r2,r2,-1
     528:	103ffd1e 	bne	r2,zero,520 <__alt_data_end+0xff000520>
     52c:	01800804 	movi	r6,32
     530:	014ccb84 	movi	r5,13102
     534:	01001e04 	movi	r4,120
     538:	00009a80 	call	9a8 <i2c_short_write>
     53c:	008003f4 	movhi	r2,15
     540:	10909004 	addi	r2,r2,16960
     544:	0001883a 	nop
     548:	10bfffc4 	addi	r2,r2,-1
     54c:	103ffd1e 	bne	r2,zero,544 <__alt_data_end+0xff000544>
     550:	01800884 	movi	r6,34
     554:	014d0104 	movi	r5,13316
     558:	01001e04 	movi	r4,120
     55c:	00009a80 	call	9a8 <i2c_short_write>
     560:	008003f4 	movhi	r2,15
     564:	10909004 	addi	r2,r2,16960
     568:	0001883a 	nop
     56c:	10bfffc4 	addi	r2,r2,-1
     570:	103ffd1e 	bne	r2,zero,568 <__alt_data_end+0xff000568>
     574:	018009c4 	movi	r6,39
     578:	014c1004 	movi	r5,12352
     57c:	01001e04 	movi	r4,120
     580:	dfc00317 	ldw	ra,12(sp)
     584:	dc800217 	ldw	r18,8(sp)
     588:	dc400117 	ldw	r17,4(sp)
     58c:	dc000017 	ldw	r16,0(sp)
     590:	dec00404 	addi	sp,sp,16
     594:	00009a81 	jmpi	9a8 <i2c_short_write>

00000598 <cam_get_xsize>:
     598:	00c04034 	movhi	r3,256
     59c:	18c41304 	addi	r3,r3,4172
     5a0:	18800023 	ldbuio	r2,0(r3)
     5a4:	1080010c 	andi	r2,r2,4
     5a8:	103ffd26 	beq	r2,zero,5a0 <__alt_data_end+0xff0005a0>
     5ac:	00804034 	movhi	r2,256
     5b0:	10841004 	addi	r2,r2,4160
     5b4:	1080002b 	ldhuio	r2,0(r2)
     5b8:	f800283a 	ret

000005bc <cam_get_ysize>:
     5bc:	00c04034 	movhi	r3,256
     5c0:	18c41304 	addi	r3,r3,4172
     5c4:	18800023 	ldbuio	r2,0(r3)
     5c8:	1080010c 	andi	r2,r2,4
     5cc:	103ffd26 	beq	r2,zero,5c4 <__alt_data_end+0xff0005c4>
     5d0:	00804034 	movhi	r2,256
     5d4:	10841104 	addi	r2,r2,4164
     5d8:	1080002b 	ldhuio	r2,0(r2)
     5dc:	f800283a 	ret

000005e0 <cam_get_profiling>:
     5e0:	00c04034 	movhi	r3,256
     5e4:	18c41304 	addi	r3,r3,4172
     5e8:	18800023 	ldbuio	r2,0(r3)
     5ec:	1080010c 	andi	r2,r2,4
     5f0:	103ffd26 	beq	r2,zero,5e8 <__alt_data_end+0xff0005e8>
     5f4:	00804034 	movhi	r2,256
     5f8:	deffff04 	addi	sp,sp,-4
     5fc:	10841004 	addi	r2,r2,4160
     600:	dfc00015 	stw	ra,0(sp)
     604:	1140002b 	ldhuio	r5,0(r2)
     608:	01000074 	movhi	r4,1
     60c:	2103df04 	addi	r4,r4,3964
     610:	297fffcc 	andi	r5,r5,65535
     614:	000260c0 	call	260c <printf>
     618:	00804034 	movhi	r2,256
     61c:	10841104 	addi	r2,r2,4164
     620:	1140002b 	ldhuio	r5,0(r2)
     624:	01000074 	movhi	r4,1
     628:	2103e704 	addi	r4,r4,3996
     62c:	297fffcc 	andi	r5,r5,65535
     630:	000260c0 	call	260c <printf>
     634:	00804034 	movhi	r2,256
     638:	10841204 	addi	r2,r2,4168
     63c:	1140002b 	ldhuio	r5,0(r2)
     640:	01000074 	movhi	r4,1
     644:	2103ef04 	addi	r4,r4,4028
     648:	297fffcc 	andi	r5,r5,65535
     64c:	dfc00017 	ldw	ra,0(sp)
     650:	dec00104 	addi	sp,sp,4
     654:	000260c1 	jmpi	260c <printf>

00000658 <cam_set_image_pointer>:
     658:	21003fcc 	andi	r4,r4,255
     65c:	2100201c 	xori	r4,r4,128
     660:	213fe004 	addi	r4,r4,-128
     664:	00800044 	movi	r2,1
     668:	20801226 	beq	r4,r2,6b4 <cam_set_image_pointer+0x5c>
     66c:	11000c0e 	bge	r2,r4,6a0 <cam_set_image_pointer+0x48>
     670:	00800084 	movi	r2,2
     674:	20800626 	beq	r4,r2,690 <cam_set_image_pointer+0x38>
     678:	008000c4 	movi	r2,3
     67c:	2080111e 	bne	r4,r2,6c4 <cam_set_image_pointer+0x6c>
     680:	00804034 	movhi	r2,256
     684:	10841704 	addi	r2,r2,4188
     688:	11400035 	stwio	r5,0(r2)
     68c:	f800283a 	ret
     690:	00804034 	movhi	r2,256
     694:	10841604 	addi	r2,r2,4184
     698:	11400035 	stwio	r5,0(r2)
     69c:	f800283a 	ret
     6a0:	2000091e 	bne	r4,zero,6c8 <cam_set_image_pointer+0x70>
     6a4:	00804034 	movhi	r2,256
     6a8:	10841404 	addi	r2,r2,4176
     6ac:	11400035 	stwio	r5,0(r2)
     6b0:	f800283a 	ret
     6b4:	00804034 	movhi	r2,256
     6b8:	10841504 	addi	r2,r2,4180
     6bc:	11400035 	stwio	r5,0(r2)
     6c0:	f800283a 	ret
     6c4:	f800283a 	ret
     6c8:	f800283a 	ret

000006cc <current_image_valid>:
     6cc:	00804034 	movhi	r2,256
     6d0:	10841304 	addi	r2,r2,4172
     6d4:	1080002b 	ldhuio	r2,0(r2)
     6d8:	1080800c 	andi	r2,r2,512
     6dc:	f800283a 	ret

000006e0 <current_image_pointer>:
     6e0:	00804034 	movhi	r2,256
     6e4:	10841404 	addi	r2,r2,4176
     6e8:	10800037 	ldwio	r2,0(r2)
     6ec:	f800283a 	ret

000006f0 <take_picture_blocking>:
     6f0:	00c04034 	movhi	r3,256
     6f4:	18c41304 	addi	r3,r3,4172
     6f8:	00800204 	movi	r2,8
     6fc:	1880002d 	sthio	r2,0(r3)
     700:	1880002b 	ldhuio	r2,0(r3)
     704:	1080020c 	andi	r2,r2,8
     708:	103ffd1e 	bne	r2,zero,700 <__alt_data_end+0xff000700>
     70c:	f800283a 	ret

00000710 <enable_continues_mode>:
     710:	00804034 	movhi	r2,256
     714:	10841304 	addi	r2,r2,4172
     718:	00c00404 	movi	r3,16
     71c:	10c0002d 	sthio	r3,0(r2)
     720:	f800283a 	ret

00000724 <new_image_available>:
     724:	00c04034 	movhi	r3,256
     728:	18c41304 	addi	r3,r3,4172
     72c:	1880002b 	ldhuio	r2,0(r3)
     730:	1080200c 	andi	r2,r2,128
     734:	1000021e 	bne	r2,zero,740 <new_image_available+0x1c>
     738:	0005883a 	mov	r2,zero
     73c:	f800283a 	ret
     740:	00804004 	movi	r2,256
     744:	1880002d 	sthio	r2,0(r3)
     748:	00800044 	movi	r2,1
     74c:	f800283a 	ret

00000750 <DIPSW_get_value>:
     750:	00804034 	movhi	r2,256
     754:	10842804 	addi	r2,r2,4256
     758:	10800023 	ldbuio	r2,0(r2)
     75c:	0084303a 	nor	r2,zero,r2
     760:	f800283a 	ret

00000764 <conv_grayscale>:
     764:	d0a6cd17 	ldw	r2,-25804(gp)
     768:	defffc04 	addi	sp,sp,-16
     76c:	dc800215 	stw	r18,8(sp)
     770:	dc400115 	stw	r17,4(sp)
     774:	dc000015 	stw	r16,0(sp)
     778:	dfc00315 	stw	ra,12(sp)
     77c:	d166cc15 	stw	r5,-25808(gp)
     780:	d1a6cb15 	stw	r6,-25812(gp)
     784:	2821883a 	mov	r16,r5
     788:	3023883a 	mov	r17,r6
     78c:	2025883a 	mov	r18,r4
     790:	10000226 	beq	r2,zero,79c <conv_grayscale+0x38>
     794:	1009883a 	mov	r4,r2
     798:	0001dbc0 	call	1dbc <free>
     79c:	8449383a 	mul	r4,r16,r17
     7a0:	0001da80 	call	1da8 <malloc>
     7a4:	d0a6cd15 	stw	r2,-25804(gp)
     7a8:	0440200e 	bge	zero,r17,82c <conv_grayscale+0xc8>
     7ac:	840d883a 	add	r6,r16,r16
     7b0:	9009883a 	mov	r4,r18
     7b4:	8017883a 	mov	r11,r16
     7b8:	000b883a 	mov	r5,zero
     7bc:	0400170e 	bge	zero,r16,81c <conv_grayscale+0xb8>
     7c0:	5c13c83a 	sub	r9,r11,r16
     7c4:	2015883a 	mov	r10,r4
     7c8:	5080000b 	ldhu	r2,0(r10)
     7cc:	100ed17a 	srli	r7,r2,5
     7d0:	1010d2fa 	srli	r8,r2,11
     7d4:	100690fa 	slli	r3,r2,3
     7d8:	39cf883a 	add	r7,r7,r7
     7dc:	400490fa 	slli	r2,r8,3
     7e0:	39cf883a 	add	r7,r7,r7
     7e4:	39c03fcc 	andi	r7,r7,255
     7e8:	39c01724 	muli	r7,r7,92
     7ec:	108006e4 	muli	r2,r2,27
     7f0:	18c03fcc 	andi	r3,r3,255
     7f4:	18c00264 	muli	r3,r3,9
     7f8:	3885883a 	add	r2,r7,r2
     7fc:	d1e6cd17 	ldw	r7,-25804(gp)
     800:	10c5883a 	add	r2,r2,r3
     804:	1005d1fa 	srai	r2,r2,7
     808:	3a4f883a 	add	r7,r7,r9
     80c:	38800025 	stbio	r2,0(r7)
     810:	4a400044 	addi	r9,r9,1
     814:	52800084 	addi	r10,r10,2
     818:	5a7feb1e 	bne	r11,r9,7c8 <__alt_data_end+0xff0007c8>
     81c:	29400044 	addi	r5,r5,1
     820:	2189883a 	add	r4,r4,r6
     824:	5c17883a 	add	r11,r11,r16
     828:	897fe41e 	bne	r17,r5,7bc <__alt_data_end+0xff0007bc>
     82c:	dfc00317 	ldw	ra,12(sp)
     830:	dc800217 	ldw	r18,8(sp)
     834:	dc400117 	ldw	r17,4(sp)
     838:	dc000017 	ldw	r16,0(sp)
     83c:	dec00404 	addi	sp,sp,16
     840:	f800283a 	ret

00000844 <get_grayscale_width>:
     844:	d0a6cc17 	ldw	r2,-25808(gp)
     848:	f800283a 	ret

0000084c <get_grayscale_height>:
     84c:	d0a6cb17 	ldw	r2,-25812(gp)
     850:	f800283a 	ret

00000854 <get_grayscale_picture>:
     854:	d0a6cd17 	ldw	r2,-25804(gp)
     858:	f800283a 	ret

0000085c <i2c_busy_wait>:
     85c:	00c04034 	movhi	r3,256
     860:	18c42704 	addi	r3,r3,4252
     864:	18800037 	ldwio	r2,0(r3)
     868:	108000cc 	andi	r2,r2,3
     86c:	103ffd1e 	bne	r2,zero,864 <__alt_data_end+0xff000864>
     870:	f800283a 	ret

00000874 <i2c_auto_detect>:
     874:	01004034 	movhi	r4,256
     878:	21042704 	addi	r4,r4,4252
     87c:	00c04034 	movhi	r3,256
     880:	18c42704 	addi	r3,r3,4252
     884:	20800037 	ldwio	r2,0(r4)
     888:	108000cc 	andi	r2,r2,3
     88c:	103ffb1e 	bne	r2,zero,87c <__alt_data_end+0xff00087c>
     890:	00800104 	movi	r2,4
     894:	18800035 	stwio	r2,0(r3)
     898:	18800037 	ldwio	r2,0(r3)
     89c:	108000cc 	andi	r2,r2,3
     8a0:	103ffd1e 	bne	r2,zero,898 <__alt_data_end+0xff000898>
     8a4:	00804034 	movhi	r2,256
     8a8:	defffc04 	addi	sp,sp,-16
     8ac:	10842504 	addi	r2,r2,4244
     8b0:	dfc00315 	stw	ra,12(sp)
     8b4:	dc800215 	stw	r18,8(sp)
     8b8:	dc400115 	stw	r17,4(sp)
     8bc:	dc000015 	stw	r16,0(sp)
     8c0:	14800037 	ldwio	r18,0(r2)
     8c4:	01000074 	movhi	r4,1
     8c8:	2104d704 	addi	r4,r4,4956
     8cc:	900b883a 	mov	r5,r18
     8d0:	0021883a 	mov	r16,zero
     8d4:	000260c0 	call	260c <printf>
     8d8:	04800a0e 	bge	zero,r18,904 <i2c_auto_detect+0x90>
     8dc:	04404034 	movhi	r17,256
     8e0:	8c442404 	addi	r17,r17,4240
     8e4:	8c000035 	stwio	r16,0(r17)
     8e8:	89800037 	ldwio	r6,0(r17)
     8ec:	01000074 	movhi	r4,1
     8f0:	800b883a 	mov	r5,r16
     8f4:	2104e004 	addi	r4,r4,4992
     8f8:	84000044 	addi	r16,r16,1
     8fc:	000260c0 	call	260c <printf>
     900:	943ff81e 	bne	r18,r16,8e4 <__alt_data_end+0xff0008e4>
     904:	dfc00317 	ldw	ra,12(sp)
     908:	dc800217 	ldw	r18,8(sp)
     90c:	dc400117 	ldw	r17,4(sp)
     910:	dc000017 	ldw	r16,0(sp)
     914:	dec00404 	addi	sp,sp,16
     918:	f800283a 	ret

0000091c <i2c_short_read>:
     91c:	01804034 	movhi	r6,256
     920:	31842704 	addi	r6,r6,4252
     924:	00c04034 	movhi	r3,256
     928:	18c42704 	addi	r3,r3,4252
     92c:	30800037 	ldwio	r2,0(r6)
     930:	108000cc 	andi	r2,r2,3
     934:	103ffb1e 	bne	r2,zero,924 <__alt_data_end+0xff000924>
     938:	00804034 	movhi	r2,256
     93c:	21003fcc 	andi	r4,r4,255
     940:	10842404 	addi	r2,r2,4240
     944:	11000025 	stbio	r4,0(r2)
     948:	00804034 	movhi	r2,256
     94c:	10842504 	addi	r2,r2,4244
     950:	1140002d 	sthio	r5,0(r2)
     954:	008010c4 	movi	r2,67
     958:	18800025 	stbio	r2,0(r3)
     95c:	180b883a 	mov	r5,r3
     960:	00c04034 	movhi	r3,256
     964:	18c42704 	addi	r3,r3,4252
     968:	28800037 	ldwio	r2,0(r5)
     96c:	108000cc 	andi	r2,r2,3
     970:	103ffb1e 	bne	r2,zero,960 <__alt_data_end+0xff000960>
     974:	00804034 	movhi	r2,256
     978:	21000044 	addi	r4,r4,1
     97c:	10842404 	addi	r2,r2,4240
     980:	11000025 	stbio	r4,0(r2)
     984:	00800884 	movi	r2,34
     988:	18800025 	stbio	r2,0(r3)
     98c:	18800037 	ldwio	r2,0(r3)
     990:	108000cc 	andi	r2,r2,3
     994:	103ffd1e 	bne	r2,zero,98c <__alt_data_end+0xff00098c>
     998:	00804034 	movhi	r2,256
     99c:	10842604 	addi	r2,r2,4248
     9a0:	10800037 	ldwio	r2,0(r2)
     9a4:	f800283a 	ret

000009a8 <i2c_short_write>:
     9a8:	01c04034 	movhi	r7,256
     9ac:	39c42704 	addi	r7,r7,4252
     9b0:	00c04034 	movhi	r3,256
     9b4:	18c42704 	addi	r3,r3,4252
     9b8:	38800037 	ldwio	r2,0(r7)
     9bc:	108000cc 	andi	r2,r2,3
     9c0:	103ffb1e 	bne	r2,zero,9b0 <__alt_data_end+0xff0009b0>
     9c4:	00804034 	movhi	r2,256
     9c8:	10842404 	addi	r2,r2,4240
     9cc:	11000025 	stbio	r4,0(r2)
     9d0:	00804034 	movhi	r2,256
     9d4:	10842504 	addi	r2,r2,4244
     9d8:	1140002d 	sthio	r5,0(r2)
     9dc:	00804034 	movhi	r2,256
     9e0:	10842604 	addi	r2,r2,4248
     9e4:	1180002d 	sthio	r6,0(r2)
     9e8:	00801084 	movi	r2,66
     9ec:	18800025 	stbio	r2,0(r3)
     9f0:	18800037 	ldwio	r2,0(r3)
     9f4:	108000cc 	andi	r2,r2,3
     9f8:	103ffd1e 	bne	r2,zero,9f0 <__alt_data_end+0xff0009f0>
     9fc:	f800283a 	ret

00000a00 <LCD_Write_Command>:
     a00:	00804034 	movhi	r2,256
     a04:	10841804 	addi	r2,r2,4192
     a08:	1100002d 	sthio	r4,0(r2)
     a0c:	01000284 	movi	r4,10
     a10:	000ed4c1 	jmpi	ed4c <usleep>

00000a14 <LCD_Write_Data>:
     a14:	00804034 	movhi	r2,256
     a18:	10841904 	addi	r2,r2,4196
     a1c:	1100002d 	sthio	r4,0(r2)
     a20:	01000284 	movi	r4,10
     a24:	000ed4c1 	jmpi	ed4c <usleep>

00000a28 <init_LCD>:
     a28:	defff704 	addi	sp,sp,-36
     a2c:	00804034 	movhi	r2,256
     a30:	dd400515 	stw	r21,20(sp)
     a34:	dfc00815 	stw	ra,32(sp)
     a38:	ddc00715 	stw	r23,28(sp)
     a3c:	dd800615 	stw	r22,24(sp)
     a40:	dd000415 	stw	r20,16(sp)
     a44:	dcc00315 	stw	r19,12(sp)
     a48:	dc800215 	stw	r18,8(sp)
     a4c:	dc400115 	stw	r17,4(sp)
     a50:	dc000015 	stw	r16,0(sp)
     a54:	05400084 	movi	r21,2
     a58:	10841a04 	addi	r2,r2,4200
     a5c:	1540002d 	sthio	r21,0(r2)
     a60:	04804034 	movhi	r18,256
     a64:	94841804 	addi	r18,r18,4192
     a68:	00800a04 	movi	r2,40
     a6c:	9080002d 	sthio	r2,0(r18)
     a70:	04000284 	movi	r16,10
     a74:	8009883a 	mov	r4,r16
     a78:	000ed4c0 	call	ed4c <usleep>
     a7c:	05c00444 	movi	r23,17
     a80:	95c0002d 	sthio	r23,0(r18)
     a84:	8009883a 	mov	r4,r16
     a88:	04404034 	movhi	r17,256
     a8c:	8c441904 	addi	r17,r17,4196
     a90:	000ed4c0 	call	ed4c <usleep>
     a94:	0027883a 	mov	r19,zero
     a98:	8cc0002d 	sthio	r19,0(r17)
     a9c:	8009883a 	mov	r4,r16
     aa0:	000ed4c0 	call	ed4c <usleep>
     aa4:	008032c4 	movi	r2,203
     aa8:	9080002d 	sthio	r2,0(r18)
     aac:	8009883a 	mov	r4,r16
     ab0:	000ed4c0 	call	ed4c <usleep>
     ab4:	00800e44 	movi	r2,57
     ab8:	8880002d 	sthio	r2,0(r17)
     abc:	8009883a 	mov	r4,r16
     ac0:	000ed4c0 	call	ed4c <usleep>
     ac4:	00800b04 	movi	r2,44
     ac8:	8880002d 	sthio	r2,0(r17)
     acc:	8009883a 	mov	r4,r16
     ad0:	000ed4c0 	call	ed4c <usleep>
     ad4:	8cc0002d 	sthio	r19,0(r17)
     ad8:	8009883a 	mov	r4,r16
     adc:	000ed4c0 	call	ed4c <usleep>
     ae0:	00800d04 	movi	r2,52
     ae4:	8880002d 	sthio	r2,0(r17)
     ae8:	8009883a 	mov	r4,r16
     aec:	000ed4c0 	call	ed4c <usleep>
     af0:	8d40002d 	sthio	r21,0(r17)
     af4:	8009883a 	mov	r4,r16
     af8:	000ed4c0 	call	ed4c <usleep>
     afc:	008033c4 	movi	r2,207
     b00:	9080002d 	sthio	r2,0(r18)
     b04:	8009883a 	mov	r4,r16
     b08:	000ed4c0 	call	ed4c <usleep>
     b0c:	8cc0002d 	sthio	r19,0(r17)
     b10:	8009883a 	mov	r4,r16
     b14:	000ed4c0 	call	ed4c <usleep>
     b18:	05802044 	movi	r22,129
     b1c:	8d80002d 	sthio	r22,0(r17)
     b20:	8009883a 	mov	r4,r16
     b24:	000ed4c0 	call	ed4c <usleep>
     b28:	00800c04 	movi	r2,48
     b2c:	8880002d 	sthio	r2,0(r17)
     b30:	8009883a 	mov	r4,r16
     b34:	000ed4c0 	call	ed4c <usleep>
     b38:	00803a04 	movi	r2,232
     b3c:	9080002d 	sthio	r2,0(r18)
     b40:	8009883a 	mov	r4,r16
     b44:	000ed4c0 	call	ed4c <usleep>
     b48:	00802144 	movi	r2,133
     b4c:	8880002d 	sthio	r2,0(r17)
     b50:	8009883a 	mov	r4,r16
     b54:	000ed4c0 	call	ed4c <usleep>
     b58:	05000044 	movi	r20,1
     b5c:	8d00002d 	sthio	r20,0(r17)
     b60:	8009883a 	mov	r4,r16
     b64:	000ed4c0 	call	ed4c <usleep>
     b68:	00801e44 	movi	r2,121
     b6c:	8880002d 	sthio	r2,0(r17)
     b70:	8009883a 	mov	r4,r16
     b74:	000ed4c0 	call	ed4c <usleep>
     b78:	00803a84 	movi	r2,234
     b7c:	9080002d 	sthio	r2,0(r18)
     b80:	8009883a 	mov	r4,r16
     b84:	000ed4c0 	call	ed4c <usleep>
     b88:	8cc0002d 	sthio	r19,0(r17)
     b8c:	8009883a 	mov	r4,r16
     b90:	000ed4c0 	call	ed4c <usleep>
     b94:	8cc0002d 	sthio	r19,0(r17)
     b98:	8009883a 	mov	r4,r16
     b9c:	000ed4c0 	call	ed4c <usleep>
     ba0:	00801904 	movi	r2,100
     ba4:	8880002d 	sthio	r2,0(r17)
     ba8:	8009883a 	mov	r4,r16
     bac:	000ed4c0 	call	ed4c <usleep>
     bb0:	008000c4 	movi	r2,3
     bb4:	8880002d 	sthio	r2,0(r17)
     bb8:	8009883a 	mov	r4,r16
     bbc:	000ed4c0 	call	ed4c <usleep>
     bc0:	00800484 	movi	r2,18
     bc4:	8880002d 	sthio	r2,0(r17)
     bc8:	8009883a 	mov	r4,r16
     bcc:	000ed4c0 	call	ed4c <usleep>
     bd0:	8d80002d 	sthio	r22,0(r17)
     bd4:	8009883a 	mov	r4,r16
     bd8:	000ed4c0 	call	ed4c <usleep>
     bdc:	00803dc4 	movi	r2,247
     be0:	9080002d 	sthio	r2,0(r18)
     be4:	8009883a 	mov	r4,r16
     be8:	000ed4c0 	call	ed4c <usleep>
     bec:	00800804 	movi	r2,32
     bf0:	8880002d 	sthio	r2,0(r17)
     bf4:	8009883a 	mov	r4,r16
     bf8:	000ed4c0 	call	ed4c <usleep>
     bfc:	00803004 	movi	r2,192
     c00:	9080002d 	sthio	r2,0(r18)
     c04:	8009883a 	mov	r4,r16
     c08:	000ed4c0 	call	ed4c <usleep>
     c0c:	05800984 	movi	r22,38
     c10:	8d80002d 	sthio	r22,0(r17)
     c14:	8009883a 	mov	r4,r16
     c18:	000ed4c0 	call	ed4c <usleep>
     c1c:	00800104 	movi	r2,4
     c20:	8880002d 	sthio	r2,0(r17)
     c24:	8009883a 	mov	r4,r16
     c28:	000ed4c0 	call	ed4c <usleep>
     c2c:	00803044 	movi	r2,193
     c30:	9080002d 	sthio	r2,0(r18)
     c34:	8009883a 	mov	r4,r16
     c38:	000ed4c0 	call	ed4c <usleep>
     c3c:	8dc0002d 	sthio	r23,0(r17)
     c40:	8009883a 	mov	r4,r16
     c44:	000ed4c0 	call	ed4c <usleep>
     c48:	00803144 	movi	r2,197
     c4c:	9080002d 	sthio	r2,0(r18)
     c50:	8009883a 	mov	r4,r16
     c54:	000ed4c0 	call	ed4c <usleep>
     c58:	00800d44 	movi	r2,53
     c5c:	8880002d 	sthio	r2,0(r17)
     c60:	8009883a 	mov	r4,r16
     c64:	000ed4c0 	call	ed4c <usleep>
     c68:	00800f84 	movi	r2,62
     c6c:	8880002d 	sthio	r2,0(r17)
     c70:	8009883a 	mov	r4,r16
     c74:	000ed4c0 	call	ed4c <usleep>
     c78:	008031c4 	movi	r2,199
     c7c:	9080002d 	sthio	r2,0(r18)
     c80:	8009883a 	mov	r4,r16
     c84:	000ed4c0 	call	ed4c <usleep>
     c88:	00802f84 	movi	r2,190
     c8c:	8880002d 	sthio	r2,0(r17)
     c90:	8009883a 	mov	r4,r16
     c94:	000ed4c0 	call	ed4c <usleep>
     c98:	00802c44 	movi	r2,177
     c9c:	9080002d 	sthio	r2,0(r18)
     ca0:	8009883a 	mov	r4,r16
     ca4:	000ed4c0 	call	ed4c <usleep>
     ca8:	8cc0002d 	sthio	r19,0(r17)
     cac:	8009883a 	mov	r4,r16
     cb0:	000ed4c0 	call	ed4c <usleep>
     cb4:	00800404 	movi	r2,16
     cb8:	8880002d 	sthio	r2,0(r17)
     cbc:	8009883a 	mov	r4,r16
     cc0:	000ed4c0 	call	ed4c <usleep>
     cc4:	00800e84 	movi	r2,58
     cc8:	9080002d 	sthio	r2,0(r18)
     ccc:	8009883a 	mov	r4,r16
     cd0:	000ed4c0 	call	ed4c <usleep>
     cd4:	00801544 	movi	r2,85
     cd8:	8880002d 	sthio	r2,0(r17)
     cdc:	8009883a 	mov	r4,r16
     ce0:	000ed4c0 	call	ed4c <usleep>
     ce4:	00802d84 	movi	r2,182
     ce8:	9080002d 	sthio	r2,0(r18)
     cec:	8009883a 	mov	r4,r16
     cf0:	000ed4c0 	call	ed4c <usleep>
     cf4:	8c00002d 	sthio	r16,0(r17)
     cf8:	8009883a 	mov	r4,r16
     cfc:	000ed4c0 	call	ed4c <usleep>
     d00:	00802884 	movi	r2,162
     d04:	8880002d 	sthio	r2,0(r17)
     d08:	8009883a 	mov	r4,r16
     d0c:	000ed4c0 	call	ed4c <usleep>
     d10:	00803c84 	movi	r2,242
     d14:	9080002d 	sthio	r2,0(r18)
     d18:	8009883a 	mov	r4,r16
     d1c:	000ed4c0 	call	ed4c <usleep>
     d20:	8d40002d 	sthio	r21,0(r17)
     d24:	8009883a 	mov	r4,r16
     d28:	000ed4c0 	call	ed4c <usleep>
     d2c:	9580002d 	sthio	r22,0(r18)
     d30:	8009883a 	mov	r4,r16
     d34:	000ed4c0 	call	ed4c <usleep>
     d38:	8d00002d 	sthio	r20,0(r17)
     d3c:	8009883a 	mov	r4,r16
     d40:	000ed4c0 	call	ed4c <usleep>
     d44:	00800d84 	movi	r2,54
     d48:	9080002d 	sthio	r2,0(r18)
     d4c:	8009883a 	mov	r4,r16
     d50:	000ed4c0 	call	ed4c <usleep>
     d54:	8cc0002d 	sthio	r19,0(r17)
     d58:	8009883a 	mov	r4,r16
     d5c:	000ed4c0 	call	ed4c <usleep>
     d60:	00800a84 	movi	r2,42
     d64:	9080002d 	sthio	r2,0(r18)
     d68:	8009883a 	mov	r4,r16
     d6c:	000ed4c0 	call	ed4c <usleep>
     d70:	8cc0002d 	sthio	r19,0(r17)
     d74:	8009883a 	mov	r4,r16
     d78:	000ed4c0 	call	ed4c <usleep>
     d7c:	8cc0002d 	sthio	r19,0(r17)
     d80:	8009883a 	mov	r4,r16
     d84:	000ed4c0 	call	ed4c <usleep>
     d88:	8cc0002d 	sthio	r19,0(r17)
     d8c:	8009883a 	mov	r4,r16
     d90:	000ed4c0 	call	ed4c <usleep>
     d94:	00803bc4 	movi	r2,239
     d98:	8880002d 	sthio	r2,0(r17)
     d9c:	8009883a 	mov	r4,r16
     da0:	000ed4c0 	call	ed4c <usleep>
     da4:	00800ac4 	movi	r2,43
     da8:	9080002d 	sthio	r2,0(r18)
     dac:	8009883a 	mov	r4,r16
     db0:	000ed4c0 	call	ed4c <usleep>
     db4:	8cc0002d 	sthio	r19,0(r17)
     db8:	8009883a 	mov	r4,r16
     dbc:	000ed4c0 	call	ed4c <usleep>
     dc0:	8cc0002d 	sthio	r19,0(r17)
     dc4:	8009883a 	mov	r4,r16
     dc8:	000ed4c0 	call	ed4c <usleep>
     dcc:	8d00002d 	sthio	r20,0(r17)
     dd0:	8009883a 	mov	r4,r16
     dd4:	000ed4c0 	call	ed4c <usleep>
     dd8:	00800fc4 	movi	r2,63
     ddc:	8880002d 	sthio	r2,0(r17)
     de0:	8009883a 	mov	r4,r16
     de4:	000ed4c0 	call	ed4c <usleep>
     de8:	00c04034 	movhi	r3,256
     dec:	00803c04 	movi	r2,240
     df0:	18c41d04 	addi	r3,r3,4212
     df4:	18800035 	stwio	r2,0(r3)
     df8:	d0a6ce8d 	sth	r2,-25798(gp)
     dfc:	00805004 	movi	r2,320
     e00:	d0a6ce0d 	sth	r2,-25800(gp)
     e04:	00800a44 	movi	r2,41
     e08:	9080002d 	sthio	r2,0(r18)
     e0c:	8009883a 	mov	r4,r16
     e10:	dfc00817 	ldw	ra,32(sp)
     e14:	ddc00717 	ldw	r23,28(sp)
     e18:	dd800617 	ldw	r22,24(sp)
     e1c:	dd400517 	ldw	r21,20(sp)
     e20:	dd000417 	ldw	r20,16(sp)
     e24:	dcc00317 	ldw	r19,12(sp)
     e28:	dc800217 	ldw	r18,8(sp)
     e2c:	dc400117 	ldw	r17,4(sp)
     e30:	dc000017 	ldw	r16,0(sp)
     e34:	dec00904 	addi	sp,sp,36
     e38:	000ed4c1 	jmpi	ed4c <usleep>

00000e3c <transfer_LCD_no_dma>:
     e3c:	defffb04 	addi	sp,sp,-20
     e40:	00804034 	movhi	r2,256
     e44:	dc000015 	stw	r16,0(sp)
     e48:	dfc00415 	stw	ra,16(sp)
     e4c:	dcc00315 	stw	r19,12(sp)
     e50:	dc800215 	stw	r18,8(sp)
     e54:	dc400115 	stw	r17,4(sp)
     e58:	2021883a 	mov	r16,r4
     e5c:	10841e04 	addi	r2,r2,4216
     e60:	11400035 	stwio	r5,0(r2)
     e64:	00804034 	movhi	r2,256
     e68:	10841804 	addi	r2,r2,4192
     e6c:	00c00b04 	movi	r3,44
     e70:	10c0002d 	sthio	r3,0(r2)
     e74:	29a5383a 	mul	r18,r5,r6
     e78:	01000284 	movi	r4,10
     e7c:	000ed4c0 	call	ed4c <usleep>
     e80:	90000a26 	beq	r18,zero,eac <transfer_LCD_no_dma+0x70>
     e84:	04c04034 	movhi	r19,256
     e88:	9cc41904 	addi	r19,r19,4196
     e8c:	0023883a 	mov	r17,zero
     e90:	8080000b 	ldhu	r2,0(r16)
     e94:	9880002d 	sthio	r2,0(r19)
     e98:	01000284 	movi	r4,10
     e9c:	8c400044 	addi	r17,r17,1
     ea0:	000ed4c0 	call	ed4c <usleep>
     ea4:	84000084 	addi	r16,r16,2
     ea8:	8cbff91e 	bne	r17,r18,e90 <__alt_data_end+0xff000e90>
     eac:	dfc00417 	ldw	ra,16(sp)
     eb0:	dcc00317 	ldw	r19,12(sp)
     eb4:	dc800217 	ldw	r18,8(sp)
     eb8:	dc400117 	ldw	r17,4(sp)
     ebc:	dc000017 	ldw	r16,0(sp)
     ec0:	dec00504 	addi	sp,sp,20
     ec4:	f800283a 	ret

00000ec8 <transfer_LCD_with_dma>:
     ec8:	d0a6ce0b 	ldhu	r2,-25800(gp)
     ecc:	3080010e 	bge	r6,r2,ed4 <transfer_LCD_with_dma+0xc>
     ed0:	3005883a 	mov	r2,r6
     ed4:	d0e6ce8b 	ldhu	r3,-25798(gp)
     ed8:	28c0010e 	bge	r5,r3,ee0 <transfer_LCD_with_dma+0x18>
     edc:	2807883a 	mov	r3,r5
     ee0:	01804034 	movhi	r6,256
     ee4:	31841e04 	addi	r6,r6,4216
     ee8:	31400035 	stwio	r5,0(r6)
     eec:	01404034 	movhi	r5,256
     ef0:	29441b04 	addi	r5,r5,4204
     ef4:	29000035 	stwio	r4,0(r5)
     ef8:	18ffffcc 	andi	r3,r3,65535
     efc:	10bfffcc 	andi	r2,r2,65535
     f00:	1885383a 	mul	r2,r3,r2
     f04:	00c04034 	movhi	r3,256
     f08:	18c41c04 	addi	r3,r3,4208
     f0c:	18800035 	stwio	r2,0(r3)
     f10:	39c03fcc 	andi	r7,r7,255
     f14:	39c0201c 	xori	r7,r7,128
     f18:	00804034 	movhi	r2,256
     f1c:	39ffe004 	addi	r7,r7,-128
     f20:	10841a04 	addi	r2,r2,4200
     f24:	38000326 	beq	r7,zero,f34 <transfer_LCD_with_dma+0x6c>
     f28:	00c04404 	movi	r3,272
     f2c:	10c0002d 	sthio	r3,0(r2)
     f30:	f800283a 	ret
     f34:	00c04004 	movi	r3,256
     f38:	10c0002d 	sthio	r3,0(r2)
     f3c:	f800283a 	ret

00000f40 <main>:
     f40:	defff804 	addi	sp,sp,-32
     f44:	dfc00715 	stw	ra,28(sp)
     f48:	dd400515 	stw	r21,20(sp)
     f4c:	dd000415 	stw	r20,16(sp)
     f50:	dcc00315 	stw	r19,12(sp)
     f54:	dc800215 	stw	r18,8(sp)
     f58:	dc400115 	stw	r17,4(sp)
     f5c:	dc000015 	stw	r16,0(sp)
     f60:	dd800615 	stw	r22,24(sp)
     f64:	0000a280 	call	a28 <init_LCD>
     f68:	00002800 	call	280 <init_camera>
     f6c:	01000604 	movi	r4,24
     f70:	0001be40 	call	1be4 <vga_set_swap>
     f74:	000faf40 	call	faf4 <alt_timestamp_start>
     f78:	01000074 	movhi	r4,1
     f7c:	2104e904 	addi	r4,r4,5028
     f80:	00027080 	call	2708 <puts>
     f84:	00005e00 	call	5e0 <cam_get_profiling>
     f88:	00005980 	call	598 <cam_get_xsize>
     f8c:	1021883a 	mov	r16,r2
     f90:	00005bc0 	call	5bc <cam_get_ysize>
     f94:	10bfffcc 	andi	r2,r2,65535
     f98:	813fffcc 	andi	r4,r16,65535
     f9c:	2089383a 	mul	r4,r4,r2
     fa0:	04800044 	movi	r18,1
     fa4:	04e04414 	movui	r19,33040
     fa8:	0001da80 	call	1da8 <malloc>
     fac:	102b883a 	mov	r21,r2
     fb0:	00005980 	call	598 <cam_get_xsize>
     fb4:	1021883a 	mov	r16,r2
     fb8:	00005bc0 	call	5bc <cam_get_ysize>
     fbc:	10bfffcc 	andi	r2,r2,65535
     fc0:	813fffcc 	andi	r4,r16,65535
     fc4:	2089383a 	mul	r4,r4,r2
     fc8:	0001da80 	call	1da8 <malloc>
     fcc:	1029883a 	mov	r20,r2
     fd0:	00005980 	call	598 <cam_get_xsize>
     fd4:	1021883a 	mov	r16,r2
     fd8:	00005bc0 	call	5bc <cam_get_ysize>
     fdc:	10bfffcc 	andi	r2,r2,65535
     fe0:	813fffcc 	andi	r4,r16,65535
     fe4:	2089383a 	mul	r4,r4,r2
     fe8:	0001da80 	call	1da8 <malloc>
     fec:	1023883a 	mov	r17,r2
     ff0:	00005980 	call	598 <cam_get_xsize>
     ff4:	1021883a 	mov	r16,r2
     ff8:	00005bc0 	call	5bc <cam_get_ysize>
     ffc:	10bfffcc 	andi	r2,r2,65535
    1000:	813fffcc 	andi	r4,r16,65535
    1004:	2089383a 	mul	r4,r4,r2
    1008:	0001da80 	call	1da8 <malloc>
    100c:	a80b883a 	mov	r5,r21
    1010:	0009883a 	mov	r4,zero
    1014:	1021883a 	mov	r16,r2
    1018:	00006580 	call	658 <cam_set_image_pointer>
    101c:	a00b883a 	mov	r5,r20
    1020:	9009883a 	mov	r4,r18
    1024:	00006580 	call	658 <cam_set_image_pointer>
    1028:	880b883a 	mov	r5,r17
    102c:	01000084 	movi	r4,2
    1030:	00006580 	call	658 <cam_set_image_pointer>
    1034:	800b883a 	mov	r5,r16
    1038:	010000c4 	movi	r4,3
    103c:	00006580 	call	658 <cam_set_image_pointer>
    1040:	00007100 	call	710 <enable_continues_mode>
    1044:	00005980 	call	598 <cam_get_xsize>
    1048:	1021883a 	mov	r16,r2
    104c:	00005bc0 	call	5bc <cam_get_ysize>
    1050:	813fffcc 	andi	r4,r16,65535
    1054:	2488d83a 	srl	r4,r4,r18
    1058:	117fffcc 	andi	r5,r2,65535
    105c:	00013200 	call	1320 <init_sobel_arrays>
    1060:	00007240 	call	724 <new_image_available>
    1064:	10803fcc 	andi	r2,r2,255
    1068:	1080201c 	xori	r2,r2,128
    106c:	10bfe004 	addi	r2,r2,-128
    1070:	103ffb26 	beq	r2,zero,1060 <__alt_data_end+0xff001060>
    1074:	00006cc0 	call	6cc <current_image_valid>
    1078:	10bfffcc 	andi	r2,r2,65535
    107c:	10a0001c 	xori	r2,r2,32768
    1080:	10a00004 	addi	r2,r2,-32768
    1084:	103ff626 	beq	r2,zero,1060 <__alt_data_end+0xff001060>
    1088:	00007500 	call	750 <DIPSW_get_value>
    108c:	1021883a 	mov	r16,r2
    1090:	00006e00 	call	6e0 <current_image_pointer>
    1094:	1023883a 	mov	r17,r2
    1098:	808001cc 	andi	r2,r16,7
    109c:	14807f26 	beq	r2,r18,129c <main+0x35c>
    10a0:	10006c26 	beq	r2,zero,1254 <main+0x314>
    10a4:	00c00084 	movi	r3,2
    10a8:	10c05e26 	beq	r2,r3,1224 <main+0x2e4>
    10ac:	00c000c4 	movi	r3,3
    10b0:	10c0221e 	bne	r2,r3,113c <main+0x1fc>
    10b4:	00005980 	call	598 <cam_get_xsize>
    10b8:	1029883a 	mov	r20,r2
    10bc:	00005bc0 	call	5bc <cam_get_ysize>
    10c0:	a17fffcc 	andi	r5,r20,65535
    10c4:	280ad07a 	srli	r5,r5,1
    10c8:	8809883a 	mov	r4,r17
    10cc:	11bfffcc 	andi	r6,r2,65535
    10d0:	00007640 	call	764 <conv_grayscale>
    10d4:	00008540 	call	854 <get_grayscale_picture>
    10d8:	1009883a 	mov	r4,r2
    10dc:	1023883a 	mov	r17,r2
    10e0:	00014c00 	call	14c0 <sobel_x>
    10e4:	8809883a 	mov	r4,r17
    10e8:	00018380 	call	1838 <sobel_y_with_rgb>
    10ec:	0001bc40 	call	1bc4 <GetSobel_rgb>
    10f0:	1029883a 	mov	r20,r2
    10f4:	00005980 	call	598 <cam_get_xsize>
    10f8:	1023883a 	mov	r17,r2
    10fc:	00005bc0 	call	5bc <cam_get_ysize>
    1100:	897fffcc 	andi	r5,r17,65535
    1104:	280ad07a 	srli	r5,r5,1
    1108:	84003fcc 	andi	r16,r16,255
    110c:	8400201c 	xori	r16,r16,128
    1110:	000f883a 	mov	r7,zero
    1114:	11bfffcc 	andi	r6,r2,65535
    1118:	a4c9883a 	add	r4,r20,r19
    111c:	843fe004 	addi	r16,r16,-128
    1120:	0000ec80 	call	ec8 <transfer_LCD_with_dma>
    1124:	803fce0e 	bge	r16,zero,1060 <__alt_data_end+0xff001060>
    1128:	01000204 	movi	r4,8
    112c:	0001be40 	call	1be4 <vga_set_swap>
    1130:	a009883a 	mov	r4,r20
    1134:	0001bd40 	call	1bd4 <vga_set_pointer>
    1138:	003fc906 	br	1060 <__alt_data_end+0xff001060>
    113c:	000fb6c0 	call	fb6c <alt_timestamp>
    1140:	1029883a 	mov	r20,r2
    1144:	00005980 	call	598 <cam_get_xsize>
    1148:	102b883a 	mov	r21,r2
    114c:	00005bc0 	call	5bc <cam_get_ysize>
    1150:	a97fffcc 	andi	r5,r21,65535
    1154:	280ad07a 	srli	r5,r5,1
    1158:	11bfffcc 	andi	r6,r2,65535
    115c:	8809883a 	mov	r4,r17
    1160:	00007640 	call	764 <conv_grayscale>
    1164:	00008540 	call	854 <get_grayscale_picture>
    1168:	102b883a 	mov	r21,r2
    116c:	000fb6c0 	call	fb6c <alt_timestamp>
    1170:	1529c83a 	sub	r20,r2,r20
    1174:	a009883a 	mov	r4,r20
    1178:	014000f4 	movhi	r5,3
    117c:	0001cec0 	call	1cec <__udivsi3>
    1180:	01000074 	movhi	r4,1
    1184:	100b883a 	mov	r5,r2
    1188:	2104ee04 	addi	r4,r4,5048
    118c:	000260c0 	call	260c <printf>
    1190:	000fb6c0 	call	fb6c <alt_timestamp>
    1194:	a809883a 	mov	r4,r21
    1198:	01402004 	movi	r5,128
    119c:	1023883a 	mov	r17,r2
    11a0:	0001a540 	call	1a54 <sobel>
    11a4:	000fb6c0 	call	fb6c <alt_timestamp>
    11a8:	1463c83a 	sub	r17,r2,r17
    11ac:	8809883a 	mov	r4,r17
    11b0:	014000f4 	movhi	r5,3
    11b4:	0001cec0 	call	1cec <__udivsi3>
    11b8:	01000074 	movhi	r4,1
    11bc:	100b883a 	mov	r5,r2
    11c0:	2104f604 	addi	r4,r4,5080
    11c4:	000260c0 	call	260c <printf>
    11c8:	0001bcc0 	call	1bcc <GetSobelResult>
    11cc:	102d883a 	mov	r22,r2
    11d0:	00005980 	call	598 <cam_get_xsize>
    11d4:	102b883a 	mov	r21,r2
    11d8:	00005bc0 	call	5bc <cam_get_ysize>
    11dc:	a97fffcc 	andi	r5,r21,65535
    11e0:	280ad07a 	srli	r5,r5,1
    11e4:	84003fcc 	andi	r16,r16,255
    11e8:	8400201c 	xori	r16,r16,128
    11ec:	01c00044 	movi	r7,1
    11f0:	11bfffcc 	andi	r6,r2,65535
    11f4:	b1102204 	addi	r4,r22,16520
    11f8:	843fe004 	addi	r16,r16,-128
    11fc:	0000ec80 	call	ec8 <transfer_LCD_with_dma>
    1200:	80004216 	blt	r16,zero,130c <main+0x3cc>
    1204:	a449883a 	add	r4,r20,r17
    1208:	014000f4 	movhi	r5,3
    120c:	0001cec0 	call	1cec <__udivsi3>
    1210:	01000074 	movhi	r4,1
    1214:	100b883a 	mov	r5,r2
    1218:	2104ff04 	addi	r4,r4,5116
    121c:	000260c0 	call	260c <printf>
    1220:	003f8f06 	br	1060 <__alt_data_end+0xff001060>
    1224:	00005980 	call	598 <cam_get_xsize>
    1228:	1029883a 	mov	r20,r2
    122c:	00005bc0 	call	5bc <cam_get_ysize>
    1230:	a17fffcc 	andi	r5,r20,65535
    1234:	280ad07a 	srli	r5,r5,1
    1238:	8809883a 	mov	r4,r17
    123c:	11bfffcc 	andi	r6,r2,65535
    1240:	00007640 	call	764 <conv_grayscale>
    1244:	00008540 	call	854 <get_grayscale_picture>
    1248:	1009883a 	mov	r4,r2
    124c:	00015c00 	call	15c0 <sobel_x_with_rgb>
    1250:	003fa606 	br	10ec <__alt_data_end+0xff0010ec>
    1254:	00005980 	call	598 <cam_get_xsize>
    1258:	1029883a 	mov	r20,r2
    125c:	00005bc0 	call	5bc <cam_get_ysize>
    1260:	a17fffcc 	andi	r5,r20,65535
    1264:	280ad07a 	srli	r5,r5,1
    1268:	84003fcc 	andi	r16,r16,255
    126c:	8400201c 	xori	r16,r16,128
    1270:	000f883a 	mov	r7,zero
    1274:	11bfffcc 	andi	r6,r2,65535
    1278:	8cc9883a 	add	r4,r17,r19
    127c:	843fe004 	addi	r16,r16,-128
    1280:	0000ec80 	call	ec8 <transfer_LCD_with_dma>
    1284:	803f760e 	bge	r16,zero,1060 <__alt_data_end+0xff001060>
    1288:	01000204 	movi	r4,8
    128c:	0001be40 	call	1be4 <vga_set_swap>
    1290:	8809883a 	mov	r4,r17
    1294:	0001bd40 	call	1bd4 <vga_set_pointer>
    1298:	003f7106 	br	1060 <__alt_data_end+0xff001060>
    129c:	00005980 	call	598 <cam_get_xsize>
    12a0:	1029883a 	mov	r20,r2
    12a4:	00005bc0 	call	5bc <cam_get_ysize>
    12a8:	a17fffcc 	andi	r5,r20,65535
    12ac:	280ad07a 	srli	r5,r5,1
    12b0:	8809883a 	mov	r4,r17
    12b4:	11bfffcc 	andi	r6,r2,65535
    12b8:	00007640 	call	764 <conv_grayscale>
    12bc:	00008540 	call	854 <get_grayscale_picture>
    12c0:	1029883a 	mov	r20,r2
    12c4:	00005980 	call	598 <cam_get_xsize>
    12c8:	1023883a 	mov	r17,r2
    12cc:	00005bc0 	call	5bc <cam_get_ysize>
    12d0:	897fffcc 	andi	r5,r17,65535
    12d4:	280ad07a 	srli	r5,r5,1
    12d8:	84003fcc 	andi	r16,r16,255
    12dc:	8400201c 	xori	r16,r16,128
    12e0:	900f883a 	mov	r7,r18
    12e4:	11bfffcc 	andi	r6,r2,65535
    12e8:	a1102204 	addi	r4,r20,16520
    12ec:	843fe004 	addi	r16,r16,-128
    12f0:	0000ec80 	call	ec8 <transfer_LCD_with_dma>
    12f4:	803f5a0e 	bge	r16,zero,1060 <__alt_data_end+0xff001060>
    12f8:	01000604 	movi	r4,24
    12fc:	0001be40 	call	1be4 <vga_set_swap>
    1300:	a009883a 	mov	r4,r20
    1304:	0001bd40 	call	1bd4 <vga_set_pointer>
    1308:	003f5506 	br	1060 <__alt_data_end+0xff001060>
    130c:	01000604 	movi	r4,24
    1310:	0001be40 	call	1be4 <vga_set_swap>
    1314:	b009883a 	mov	r4,r22
    1318:	0001bd40 	call	1bd4 <vga_set_pointer>
    131c:	003fb906 	br	1204 <__alt_data_end+0xff001204>

00001320 <init_sobel_arrays>:
    1320:	d0a6d217 	ldw	r2,-25784(gp)
    1324:	defffd04 	addi	sp,sp,-12
    1328:	dc400115 	stw	r17,4(sp)
    132c:	dc000015 	stw	r16,0(sp)
    1330:	dfc00215 	stw	ra,8(sp)
    1334:	d126cf15 	stw	r4,-25796(gp)
    1338:	d166d115 	stw	r5,-25788(gp)
    133c:	2023883a 	mov	r17,r4
    1340:	2821883a 	mov	r16,r5
    1344:	10000226 	beq	r2,zero,1350 <init_sobel_arrays+0x30>
    1348:	1009883a 	mov	r4,r2
    134c:	0001dbc0 	call	1dbc <free>
    1350:	8c21383a 	mul	r16,r17,r16
    1354:	8423883a 	add	r17,r16,r16
    1358:	8809883a 	mov	r4,r17
    135c:	0001da80 	call	1da8 <malloc>
    1360:	d126d317 	ldw	r4,-25780(gp)
    1364:	d0a6d215 	stw	r2,-25784(gp)
    1368:	20000126 	beq	r4,zero,1370 <init_sobel_arrays+0x50>
    136c:	0001dbc0 	call	1dbc <free>
    1370:	8809883a 	mov	r4,r17
    1374:	0001da80 	call	1da8 <malloc>
    1378:	d126d017 	ldw	r4,-25792(gp)
    137c:	d0a6d315 	stw	r2,-25780(gp)
    1380:	20000126 	beq	r4,zero,1388 <init_sobel_arrays+0x68>
    1384:	0001dbc0 	call	1dbc <free>
    1388:	8009883a 	mov	r4,r16
    138c:	0001da80 	call	1da8 <malloc>
    1390:	d126d417 	ldw	r4,-25776(gp)
    1394:	d0a6d015 	stw	r2,-25792(gp)
    1398:	20000126 	beq	r4,zero,13a0 <init_sobel_arrays+0x80>
    139c:	0001dbc0 	call	1dbc <free>
    13a0:	8809883a 	mov	r4,r17
    13a4:	0001da80 	call	1da8 <malloc>
    13a8:	d0a6d415 	stw	r2,-25776(gp)
    13ac:	0005883a 	mov	r2,zero
    13b0:	04000f0e 	bge	zero,r16,13f0 <init_sobel_arrays+0xd0>
    13b4:	d226d217 	ldw	r8,-25784(gp)
    13b8:	d1e6d317 	ldw	r7,-25780(gp)
    13bc:	d1a6d017 	ldw	r6,-25792(gp)
    13c0:	1087883a 	add	r3,r2,r2
    13c4:	40d1883a 	add	r8,r8,r3
    13c8:	4000000d 	sth	zero,0(r8)
    13cc:	38cf883a 	add	r7,r7,r3
    13d0:	308d883a 	add	r6,r6,r2
    13d4:	3800000d 	sth	zero,0(r7)
    13d8:	30000005 	stb	zero,0(r6)
    13dc:	d1a6d417 	ldw	r6,-25776(gp)
    13e0:	10800044 	addi	r2,r2,1
    13e4:	30c7883a 	add	r3,r6,r3
    13e8:	1800000d 	sth	zero,0(r3)
    13ec:	80bff11e 	bne	r16,r2,13b4 <__alt_data_end+0xff0013b4>
    13f0:	dfc00217 	ldw	ra,8(sp)
    13f4:	dc400117 	ldw	r17,4(sp)
    13f8:	dc000017 	ldw	r16,0(sp)
    13fc:	dec00304 	addi	sp,sp,12
    1400:	f800283a 	ret

00001404 <sobel_mac>:
    1404:	da800017 	ldw	r10,0(sp)
    1408:	31bfffc4 	addi	r6,r6,-1
    140c:	38c00047 	ldb	r3,1(r7)
    1410:	328d383a 	mul	r6,r6,r10
    1414:	3b8000c7 	ldb	r14,3(r7)
    1418:	3a000107 	ldb	r8,4(r7)
    141c:	5185883a 	add	r2,r10,r6
    1420:	2893883a 	add	r9,r5,r2
    1424:	314d883a 	add	r6,r6,r5
    1428:	218d883a 	add	r6,r4,r6
    142c:	2253883a 	add	r9,r4,r9
    1430:	33000003 	ldbu	r12,0(r6)
    1434:	5095883a 	add	r10,r10,r2
    1438:	48bfffc3 	ldbu	r2,-1(r9)
    143c:	5155883a 	add	r10,r10,r5
    1440:	4ac00003 	ldbu	r11,0(r9)
    1444:	229b883a 	add	r13,r4,r10
    1448:	49000043 	ldbu	r4,1(r9)
    144c:	3a800147 	ldb	r10,5(r7)
    1450:	139d383a 	mul	r14,r2,r14
    1454:	60d9383a 	mul	r12,r12,r3
    1458:	68800003 	ldbu	r2,0(r13)
    145c:	38c001c7 	ldb	r3,7(r7)
    1460:	5a17383a 	mul	r11,r11,r8
    1464:	33ffffc3 	ldbu	r15,-1(r6)
    1468:	3a000007 	ldb	r8,0(r7)
    146c:	2295383a 	mul	r10,r4,r10
    1470:	31000043 	ldbu	r4,1(r6)
    1474:	39800087 	ldb	r6,2(r7)
    1478:	730b883a 	add	r5,r14,r12
    147c:	10d3383a 	mul	r9,r2,r3
    1480:	6b3fffc3 	ldbu	r12,-1(r13)
    1484:	38c00187 	ldb	r3,6(r7)
    1488:	2acb883a 	add	r5,r5,r11
    148c:	7a11383a 	mul	r8,r15,r8
    1490:	6ac00043 	ldbu	r11,1(r13)
    1494:	39c00207 	ldb	r7,8(r7)
    1498:	2a8b883a 	add	r5,r5,r10
    149c:	2189383a 	mul	r4,r4,r6
    14a0:	2a45883a 	add	r2,r5,r9
    14a4:	60c7383a 	mul	r3,r12,r3
    14a8:	1205883a 	add	r2,r2,r8
    14ac:	59cb383a 	mul	r5,r11,r7
    14b0:	1105883a 	add	r2,r2,r4
    14b4:	10c5883a 	add	r2,r2,r3
    14b8:	1145883a 	add	r2,r2,r5
    14bc:	f800283a 	ret

000014c0 <sobel_x>:
    14c0:	defff904 	addi	sp,sp,-28
    14c4:	dc400115 	stw	r17,4(sp)
    14c8:	d466d117 	ldw	r17,-25788(gp)
    14cc:	dc000015 	stw	r16,0(sp)
    14d0:	dfc00615 	stw	ra,24(sp)
    14d4:	dd400515 	stw	r21,20(sp)
    14d8:	dd000415 	stw	r20,16(sp)
    14dc:	dcc00315 	stw	r19,12(sp)
    14e0:	dc800215 	stw	r18,8(sp)
    14e4:	04000084 	movi	r16,2
    14e8:	84402c0e 	bge	r16,r17,159c <sobel_x+0xdc>
    14ec:	d366cf17 	ldw	r13,-25796(gp)
    14f0:	d3a6d217 	ldw	r14,-25784(gp)
    14f4:	8c7fffc4 	addi	r17,r17,-1
    14f8:	6b65883a 	add	r18,r13,r13
    14fc:	9405883a 	add	r2,r18,r16
    1500:	2499883a 	add	r12,r4,r18
    1504:	709d883a 	add	r14,r14,r2
    1508:	03c00044 	movi	r15,1
    150c:	6c27883a 	add	r19,r13,r16
    1510:	693f883a 	add	ra,r13,r4
    1514:	83401c0e 	bge	r16,r13,1588 <sobel_x+0xc8>
    1518:	f817883a 	mov	r11,ra
    151c:	22800084 	addi	r10,r4,2
    1520:	990d883a 	add	r6,r19,r4
    1524:	62400084 	addi	r9,r12,2
    1528:	7011883a 	mov	r8,r14
    152c:	600f883a 	mov	r7,r12
    1530:	4d000003 	ldbu	r20,0(r9)
    1534:	50c00003 	ldbu	r3,0(r10)
    1538:	59400003 	ldbu	r5,0(r11)
    153c:	30800003 	ldbu	r2,0(r6)
    1540:	1d07883a 	add	r3,r3,r20
    1544:	25400003 	ldbu	r21,0(r4)
    1548:	1947c83a 	sub	r3,r3,r5
    154c:	3d000003 	ldbu	r20,0(r7)
    1550:	194bc83a 	sub	r5,r3,r5
    1554:	1087883a 	add	r3,r2,r2
    1558:	28c7883a 	add	r3,r5,r3
    155c:	1d45c83a 	sub	r2,r3,r21
    1560:	1505c83a 	sub	r2,r2,r20
    1564:	4080000d 	sth	r2,0(r8)
    1568:	31800044 	addi	r6,r6,1
    156c:	21000044 	addi	r4,r4,1
    1570:	5ac00044 	addi	r11,r11,1
    1574:	52800044 	addi	r10,r10,1
    1578:	39c00044 	addi	r7,r7,1
    157c:	4a400044 	addi	r9,r9,1
    1580:	42000084 	addi	r8,r8,2
    1584:	61bfea1e 	bne	r12,r6,1530 <__alt_data_end+0xff001530>
    1588:	7bc00044 	addi	r15,r15,1
    158c:	f809883a 	mov	r4,ra
    1590:	6359883a 	add	r12,r12,r13
    1594:	749d883a 	add	r14,r14,r18
    1598:	7c7fdd1e 	bne	r15,r17,1510 <__alt_data_end+0xff001510>
    159c:	dfc00617 	ldw	ra,24(sp)
    15a0:	dd400517 	ldw	r21,20(sp)
    15a4:	dd000417 	ldw	r20,16(sp)
    15a8:	dcc00317 	ldw	r19,12(sp)
    15ac:	dc800217 	ldw	r18,8(sp)
    15b0:	dc400117 	ldw	r17,4(sp)
    15b4:	dc000017 	ldw	r16,0(sp)
    15b8:	dec00704 	addi	sp,sp,28
    15bc:	f800283a 	ret

000015c0 <sobel_x_with_rgb>:
    15c0:	defff504 	addi	sp,sp,-44
    15c4:	dd800715 	stw	r22,28(sp)
    15c8:	d5a6d117 	ldw	r22,-25788(gp)
    15cc:	dfc00a15 	stw	ra,40(sp)
    15d0:	df000915 	stw	fp,36(sp)
    15d4:	ddc00815 	stw	r23,32(sp)
    15d8:	dd400615 	stw	r21,24(sp)
    15dc:	dd000515 	stw	r20,20(sp)
    15e0:	dcc00415 	stw	r19,16(sp)
    15e4:	dc800315 	stw	r18,12(sp)
    15e8:	dc400215 	stw	r17,8(sp)
    15ec:	dc000115 	stw	r16,4(sp)
    15f0:	b5bfffc4 	addi	r22,r22,-1
    15f4:	00800044 	movi	r2,1
    15f8:	1580440e 	bge	r2,r22,170c <sobel_x_with_rgb+0x14c>
    15fc:	d7e6cf17 	ldw	ra,-25796(gp)
    1600:	d4a6d217 	ldw	r18,-25784(gp)
    1604:	d466d417 	ldw	r17,-25776(gp)
    1608:	ffe9883a 	add	r20,ra,ra
    160c:	a0800084 	addi	r2,r20,2
    1610:	04000084 	movi	r16,2
    1614:	90a5883a 	add	r18,r18,r2
    1618:	88a3883a 	add	r17,r17,r2
    161c:	fc05883a 	add	r2,ra,r16
    1620:	27df883a 	add	r15,r4,ra
    1624:	802f883a 	mov	r23,r16
    1628:	87f9c83a 	sub	fp,r16,ra
    162c:	d8800015 	stw	r2,0(sp)
    1630:	bfc02f0e 	bge	r23,ra,16f0 <sobel_x_with_rgb+0x130>
    1634:	d8800017 	ldw	r2,0(sp)
    1638:	7fe7883a 	add	r19,r15,ra
    163c:	802b883a 	mov	r21,r16
    1640:	7fdbc83a 	sub	r13,r15,ra
    1644:	e3cf883a 	add	r7,fp,r15
    1648:	7b000084 	addi	r12,r15,2
    164c:	9817883a 	mov	r11,r19
    1650:	13d5883a 	add	r10,r2,r15
    1654:	881d883a 	mov	r14,r17
    1658:	9013883a 	mov	r9,r18
    165c:	7811883a 	mov	r8,r15
    1660:	00000b06 	br	1690 <sobel_x_with_rgb+0xd0>
    1664:	180692fa 	slli	r3,r3,11
    1668:	70c0000d 	sth	r3,0(r14)
    166c:	39c00044 	addi	r7,r7,1
    1670:	6b400044 	addi	r13,r13,1
    1674:	42000044 	addi	r8,r8,1
    1678:	63000044 	addi	r12,r12,1
    167c:	5ac00044 	addi	r11,r11,1
    1680:	52800044 	addi	r10,r10,1
    1684:	4a400084 	addi	r9,r9,2
    1688:	73800084 	addi	r14,r14,2
    168c:	79c01a26 	beq	r15,r7,16f8 <sobel_x_with_rgb+0x138>
    1690:	50800003 	ldbu	r2,0(r10)
    1694:	39400003 	ldbu	r5,0(r7)
    1698:	41800003 	ldbu	r6,0(r8)
    169c:	60c00003 	ldbu	r3,0(r12)
    16a0:	288b883a 	add	r5,r5,r2
    16a4:	298bc83a 	sub	r5,r5,r6
    16a8:	68800003 	ldbu	r2,0(r13)
    16ac:	59000003 	ldbu	r4,0(r11)
    16b0:	298bc83a 	sub	r5,r5,r6
    16b4:	18c7883a 	add	r3,r3,r3
    16b8:	28c7883a 	add	r3,r5,r3
    16bc:	1887c83a 	sub	r3,r3,r2
    16c0:	1905c83a 	sub	r2,r3,r4
    16c4:	4880000d 	sth	r2,0(r9)
    16c8:	10bfffcc 	andi	r2,r2,65535
    16cc:	10a0001c 	xori	r2,r2,32768
    16d0:	10a00004 	addi	r2,r2,-32768
    16d4:	1007d0fa 	srai	r3,r2,3
    16d8:	103fe20e 	bge	r2,zero,1664 <__alt_data_end+0xff001664>
    16dc:	0085c83a 	sub	r2,zero,r2
    16e0:	1005d0ba 	srai	r2,r2,2
    16e4:	1004917a 	slli	r2,r2,5
    16e8:	7080000d 	sth	r2,0(r14)
    16ec:	003fdf06 	br	166c <__alt_data_end+0xff00166c>
    16f0:	802b883a 	mov	r21,r16
    16f4:	7fe7883a 	add	r19,r15,ra
    16f8:	84000044 	addi	r16,r16,1
    16fc:	981f883a 	mov	r15,r19
    1700:	9525883a 	add	r18,r18,r20
    1704:	8d23883a 	add	r17,r17,r20
    1708:	adbfc916 	blt	r21,r22,1630 <__alt_data_end+0xff001630>
    170c:	dfc00a17 	ldw	ra,40(sp)
    1710:	df000917 	ldw	fp,36(sp)
    1714:	ddc00817 	ldw	r23,32(sp)
    1718:	dd800717 	ldw	r22,28(sp)
    171c:	dd400617 	ldw	r21,24(sp)
    1720:	dd000517 	ldw	r20,20(sp)
    1724:	dcc00417 	ldw	r19,16(sp)
    1728:	dc800317 	ldw	r18,12(sp)
    172c:	dc400217 	ldw	r17,8(sp)
    1730:	dc000117 	ldw	r16,4(sp)
    1734:	dec00b04 	addi	sp,sp,44
    1738:	f800283a 	ret

0000173c <sobel_y>:
    173c:	defff904 	addi	sp,sp,-28
    1740:	dc800215 	stw	r18,8(sp)
    1744:	d4a6d117 	ldw	r18,-25788(gp)
    1748:	dc400115 	stw	r17,4(sp)
    174c:	dfc00615 	stw	ra,24(sp)
    1750:	dd400515 	stw	r21,20(sp)
    1754:	dd000415 	stw	r20,16(sp)
    1758:	dcc00315 	stw	r19,12(sp)
    175c:	dc000015 	stw	r16,0(sp)
    1760:	04400084 	movi	r17,2
    1764:	8c802b0e 	bge	r17,r18,1814 <sobel_y+0xd8>
    1768:	d3e6cf17 	ldw	r15,-25796(gp)
    176c:	d3a6d317 	ldw	r14,-25780(gp)
    1770:	07c00044 	movi	ra,1
    1774:	7be1883a 	add	r16,r15,r15
    1778:	8467883a 	add	r19,r16,r17
    177c:	74dd883a 	add	r14,r14,r19
    1780:	94bfffc4 	addi	r18,r18,-1
    1784:	87e9883a 	add	r20,r16,ra
    1788:	8bc01e0e 	bge	r17,r15,1804 <sobel_y+0xc8>
    178c:	810f883a 	add	r7,r16,r4
    1790:	23000044 	addi	r12,r4,1
    1794:	21800084 	addi	r6,r4,2
    1798:	a117883a 	add	r11,r20,r4
    179c:	9915883a 	add	r10,r19,r4
    17a0:	3bdbc83a 	sub	r13,r7,r15
    17a4:	7013883a 	mov	r9,r14
    17a8:	2011883a 	mov	r8,r4
    17ac:	31400003 	ldbu	r5,0(r6)
    17b0:	60800003 	ldbu	r2,0(r12)
    17b4:	40c00003 	ldbu	r3,0(r8)
    17b8:	5d400003 	ldbu	r21,0(r11)
    17bc:	31800044 	addi	r6,r6,1
    17c0:	1947883a 	add	r3,r3,r5
    17c4:	108b883a 	add	r5,r2,r2
    17c8:	1947883a 	add	r3,r3,r5
    17cc:	38800003 	ldbu	r2,0(r7)
    17d0:	51400003 	ldbu	r5,0(r10)
    17d4:	1d47c83a 	sub	r3,r3,r21
    17d8:	1d47c83a 	sub	r3,r3,r21
    17dc:	1885c83a 	sub	r2,r3,r2
    17e0:	1145c83a 	sub	r2,r2,r5
    17e4:	4880000d 	sth	r2,0(r9)
    17e8:	42000044 	addi	r8,r8,1
    17ec:	63000044 	addi	r12,r12,1
    17f0:	5ac00044 	addi	r11,r11,1
    17f4:	39c00044 	addi	r7,r7,1
    17f8:	52800044 	addi	r10,r10,1
    17fc:	4a400084 	addi	r9,r9,2
    1800:	69bfea1e 	bne	r13,r6,17ac <__alt_data_end+0xff0017ac>
    1804:	ffc00044 	addi	ra,ra,1
    1808:	23c9883a 	add	r4,r4,r15
    180c:	741d883a 	add	r14,r14,r16
    1810:	97ffdd1e 	bne	r18,ra,1788 <__alt_data_end+0xff001788>
    1814:	dfc00617 	ldw	ra,24(sp)
    1818:	dd400517 	ldw	r21,20(sp)
    181c:	dd000417 	ldw	r20,16(sp)
    1820:	dcc00317 	ldw	r19,12(sp)
    1824:	dc800217 	ldw	r18,8(sp)
    1828:	dc400117 	ldw	r17,4(sp)
    182c:	dc000017 	ldw	r16,0(sp)
    1830:	dec00704 	addi	sp,sp,28
    1834:	f800283a 	ret

00001838 <sobel_y_with_rgb>:
    1838:	defff604 	addi	sp,sp,-40
    183c:	dcc00315 	stw	r19,12(sp)
    1840:	d4e6d117 	ldw	r19,-25788(gp)
    1844:	dfc00915 	stw	ra,36(sp)
    1848:	df000815 	stw	fp,32(sp)
    184c:	ddc00715 	stw	r23,28(sp)
    1850:	dd800615 	stw	r22,24(sp)
    1854:	dd400515 	stw	r21,20(sp)
    1858:	dd000415 	stw	r20,16(sp)
    185c:	dc800215 	stw	r18,8(sp)
    1860:	dc400115 	stw	r17,4(sp)
    1864:	dc000015 	stw	r16,0(sp)
    1868:	9cffffc4 	addi	r19,r19,-1
    186c:	00800044 	movi	r2,1
    1870:	14c03f0e 	bge	r2,r19,1970 <sobel_y_with_rgb+0x138>
    1874:	d466cf17 	ldw	r17,-25796(gp)
    1878:	d426d317 	ldw	r16,-25780(gp)
    187c:	d7e6d417 	ldw	ra,-25776(gp)
    1880:	8c5d883a 	add	r14,r17,r17
    1884:	75000084 	addi	r20,r14,2
    1888:	03c00084 	movi	r15,2
    188c:	8521883a 	add	r16,r16,r20
    1890:	fd3f883a 	add	ra,ra,r20
    1894:	782b883a 	mov	r21,r15
    1898:	70ad883a 	add	r22,r14,r2
    189c:	7825883a 	mov	r18,r15
    18a0:	ac402e0e 	bge	r21,r17,195c <sobel_y_with_rgb+0x124>
    18a4:	238d883a 	add	r6,r4,r14
    18a8:	7825883a 	mov	r18,r15
    18ac:	22c00044 	addi	r11,r4,1
    18b0:	22800084 	addi	r10,r4,2
    18b4:	b113883a 	add	r9,r22,r4
    18b8:	a10b883a 	add	r5,r20,r4
    18bc:	899b883a 	add	r13,r17,r6
    18c0:	f819883a 	mov	r12,ra
    18c4:	8011883a 	mov	r8,r16
    18c8:	200f883a 	mov	r7,r4
    18cc:	00000b06 	br	18fc <sobel_y_with_rgb+0xc4>
    18d0:	180692fa 	slli	r3,r3,11
    18d4:	60c0000d 	sth	r3,0(r12)
    18d8:	29400044 	addi	r5,r5,1
    18dc:	39c00044 	addi	r7,r7,1
    18e0:	5ac00044 	addi	r11,r11,1
    18e4:	52800044 	addi	r10,r10,1
    18e8:	31800044 	addi	r6,r6,1
    18ec:	4a400044 	addi	r9,r9,1
    18f0:	42000084 	addi	r8,r8,2
    18f4:	63000084 	addi	r12,r12,2
    18f8:	69401826 	beq	r13,r5,195c <sobel_y_with_rgb+0x124>
    18fc:	50800003 	ldbu	r2,0(r10)
    1900:	3f000003 	ldbu	fp,0(r7)
    1904:	58c00003 	ldbu	r3,0(r11)
    1908:	4dc00003 	ldbu	r23,0(r9)
    190c:	e0b9883a 	add	fp,fp,r2
    1910:	18c7883a 	add	r3,r3,r3
    1914:	30800003 	ldbu	r2,0(r6)
    1918:	e0c7883a 	add	r3,fp,r3
    191c:	1dc7c83a 	sub	r3,r3,r23
    1920:	2f000003 	ldbu	fp,0(r5)
    1924:	1dc7c83a 	sub	r3,r3,r23
    1928:	1885c83a 	sub	r2,r3,r2
    192c:	1705c83a 	sub	r2,r2,fp
    1930:	4080000d 	sth	r2,0(r8)
    1934:	10bfffcc 	andi	r2,r2,65535
    1938:	10a0001c 	xori	r2,r2,32768
    193c:	10a00004 	addi	r2,r2,-32768
    1940:	1007d0fa 	srai	r3,r2,3
    1944:	103fe20e 	bge	r2,zero,18d0 <__alt_data_end+0xff0018d0>
    1948:	0085c83a 	sub	r2,zero,r2
    194c:	1005d0ba 	srai	r2,r2,2
    1950:	1004917a 	slli	r2,r2,5
    1954:	6080000d 	sth	r2,0(r12)
    1958:	003fdf06 	br	18d8 <__alt_data_end+0xff0018d8>
    195c:	7bc00044 	addi	r15,r15,1
    1960:	2449883a 	add	r4,r4,r17
    1964:	83a1883a 	add	r16,r16,r14
    1968:	fbbf883a 	add	ra,ra,r14
    196c:	94ffcb16 	blt	r18,r19,189c <__alt_data_end+0xff00189c>
    1970:	dfc00917 	ldw	ra,36(sp)
    1974:	df000817 	ldw	fp,32(sp)
    1978:	ddc00717 	ldw	r23,28(sp)
    197c:	dd800617 	ldw	r22,24(sp)
    1980:	dd400517 	ldw	r21,20(sp)
    1984:	dd000417 	ldw	r20,16(sp)
    1988:	dcc00317 	ldw	r19,12(sp)
    198c:	dc800217 	ldw	r18,8(sp)
    1990:	dc400117 	ldw	r17,4(sp)
    1994:	dc000017 	ldw	r16,0(sp)
    1998:	dec00a04 	addi	sp,sp,40
    199c:	f800283a 	ret

000019a0 <sobel_threshold>:
    19a0:	d0a6d117 	ldw	r2,-25788(gp)
    19a4:	02400084 	movi	r9,2
    19a8:	4880290e 	bge	r9,r2,1a50 <sobel_threshold+0xb0>
    19ac:	223fffcc 	andi	r8,r4,65535
    19b0:	d0e6cf17 	ldw	r3,-25796(gp)
    19b4:	4220001c 	xori	r8,r8,32768
    19b8:	01c00044 	movi	r7,1
    19bc:	42200004 	addi	r8,r8,-32768
    19c0:	48c0200e 	bge	r9,r3,1a44 <sobel_threshold+0xa4>
    19c4:	01400044 	movi	r5,1
    19c8:	00000c06 	br	19fc <sobel_threshold+0x5c>
    19cc:	2080000f 	ldh	r2,0(r4)
    19d0:	10001916 	blt	r2,zero,1a38 <sobel_threshold+0x98>
    19d4:	3085883a 	add	r2,r6,r2
    19d8:	10bfffcc 	andi	r2,r2,65535
    19dc:	10a0001c 	xori	r2,r2,32768
    19e0:	10a00004 	addi	r2,r2,-32768
    19e4:	4084803a 	cmplt	r2,r8,r2
    19e8:	0085c83a 	sub	r2,zero,r2
    19ec:	18800005 	stb	r2,0(r3)
    19f0:	d0e6cf17 	ldw	r3,-25796(gp)
    19f4:	18bfffc4 	addi	r2,r3,-1
    19f8:	2880110e 	bge	r5,r2,1a40 <sobel_threshold+0xa0>
    19fc:	38c7383a 	mul	r3,r7,r3
    1a00:	d1a6d317 	ldw	r6,-25780(gp)
    1a04:	d126d217 	ldw	r4,-25784(gp)
    1a08:	1947883a 	add	r3,r3,r5
    1a0c:	18c5883a 	add	r2,r3,r3
    1a10:	308d883a 	add	r6,r6,r2
    1a14:	2089883a 	add	r4,r4,r2
    1a18:	3180000f 	ldh	r6,0(r6)
    1a1c:	d0a6d017 	ldw	r2,-25792(gp)
    1a20:	29400044 	addi	r5,r5,1
    1a24:	10c7883a 	add	r3,r2,r3
    1a28:	303fe80e 	bge	r6,zero,19cc <__alt_data_end+0xff0019cc>
    1a2c:	2080000f 	ldh	r2,0(r4)
    1a30:	018dc83a 	sub	r6,zero,r6
    1a34:	103fe70e 	bge	r2,zero,19d4 <__alt_data_end+0xff0019d4>
    1a38:	0085c83a 	sub	r2,zero,r2
    1a3c:	003fe506 	br	19d4 <__alt_data_end+0xff0019d4>
    1a40:	d0a6d117 	ldw	r2,-25788(gp)
    1a44:	39c00044 	addi	r7,r7,1
    1a48:	113fffc4 	addi	r4,r2,-1
    1a4c:	393fdc16 	blt	r7,r4,19c0 <__alt_data_end+0xff0019c0>
    1a50:	f800283a 	ret

00001a54 <sobel>:
    1a54:	d0e6d117 	ldw	r3,-25788(gp)
    1a58:	03000084 	movi	r12,2
    1a5c:	60c0580e 	bge	r12,r3,1bc0 <sobel+0x16c>
    1a60:	2affffcc 	andi	r11,r5,65535
    1a64:	d0a6cf17 	ldw	r2,-25796(gp)
    1a68:	defffc04 	addi	sp,sp,-16
    1a6c:	5ae0001c 	xori	r11,r11,32768
    1a70:	dfc00315 	stw	ra,12(sp)
    1a74:	dc800215 	stw	r18,8(sp)
    1a78:	dc400115 	stw	r17,4(sp)
    1a7c:	dc000015 	stw	r16,0(sp)
    1a80:	02800044 	movi	r10,1
    1a84:	5ae00004 	addi	r11,r11,-32768
    1a88:	6080450e 	bge	r12,r2,1ba0 <sobel+0x14c>
    1a8c:	0011883a 	mov	r8,zero
    1a90:	04000044 	movi	r16,1
    1a94:	00001906 	br	1afc <sobel+0xa8>
    1a98:	91c00003 	ldbu	r7,0(r18)
    1a9c:	f8c00003 	ldbu	r3,0(ra)
    1aa0:	42000044 	addi	r8,r8,1
    1aa4:	01cfc83a 	sub	r7,zero,r7
    1aa8:	39cf883a 	add	r7,r7,r7
    1aac:	394f883a 	add	r7,r7,r5
    1ab0:	18cb883a 	add	r5,r3,r3
    1ab4:	394b883a 	add	r5,r7,r5
    1ab8:	2bc7c83a 	sub	r3,r5,r15
    1abc:	1887c83a 	sub	r3,r3,r2
    1ac0:	18bfffcc 	andi	r2,r3,65535
    1ac4:	10a0001c 	xori	r2,r2,32768
    1ac8:	10a00004 	addi	r2,r2,-32768
    1acc:	10003116 	blt	r2,zero,1b94 <sobel+0x140>
    1ad0:	3085883a 	add	r2,r6,r2
    1ad4:	10bfffcc 	andi	r2,r2,65535
    1ad8:	10a0001c 	xori	r2,r2,32768
    1adc:	10a00004 	addi	r2,r2,-32768
    1ae0:	5884803a 	cmplt	r2,r11,r2
    1ae4:	0085c83a 	sub	r2,zero,r2
    1ae8:	80800005 	stb	r2,0(r16)
    1aec:	d0a6cf17 	ldw	r2,-25796(gp)
    1af0:	4821883a 	mov	r16,r9
    1af4:	10ffffc4 	addi	r3,r2,-1
    1af8:	48c0280e 	bge	r9,r3,1b9c <sobel+0x148>
    1afc:	50a3383a 	mul	r17,r10,r2
    1b00:	82400044 	addi	r9,r16,1
    1b04:	808dc83a 	sub	r6,r16,r2
    1b08:	245d883a 	add	r14,r4,r17
    1b0c:	408bc83a 	sub	r5,r8,r2
    1b10:	4887c83a 	sub	r3,r9,r2
    1b14:	714b883a 	add	r5,r14,r5
    1b18:	70c7883a 	add	r3,r14,r3
    1b1c:	718d883a 	add	r6,r14,r6
    1b20:	708f883a 	add	r7,r14,r2
    1b24:	2bc00003 	ldbu	r15,0(r5)
    1b28:	33400003 	ldbu	r13,0(r6)
    1b2c:	19400003 	ldbu	r5,0(r3)
    1b30:	3c05883a 	add	r2,r7,r16
    1b34:	11800003 	ldbu	r6,0(r2)
    1b38:	7225883a 	add	r18,r14,r8
    1b3c:	3a05883a 	add	r2,r7,r8
    1b40:	727f883a 	add	ra,r14,r9
    1b44:	6b5b883a 	add	r13,r13,r13
    1b48:	795d883a 	add	r14,r15,r5
    1b4c:	3a4f883a 	add	r7,r7,r9
    1b50:	6b9b883a 	add	r13,r13,r14
    1b54:	10800003 	ldbu	r2,0(r2)
    1b58:	3b800003 	ldbu	r14,0(r7)
    1b5c:	698fc83a 	sub	r7,r13,r6
    1b60:	398dc83a 	sub	r6,r7,r6
    1b64:	308dc83a 	sub	r6,r6,r2
    1b68:	338dc83a 	sub	r6,r6,r14
    1b6c:	d0e6d017 	ldw	r3,-25792(gp)
    1b70:	31bfffcc 	andi	r6,r6,65535
    1b74:	31a0001c 	xori	r6,r6,32768
    1b78:	1c63883a 	add	r17,r3,r17
    1b7c:	31a00004 	addi	r6,r6,-32768
    1b80:	2b8b883a 	add	r5,r5,r14
    1b84:	8c21883a 	add	r16,r17,r16
    1b88:	303fc30e 	bge	r6,zero,1a98 <__alt_data_end+0xff001a98>
    1b8c:	018dc83a 	sub	r6,zero,r6
    1b90:	003fc106 	br	1a98 <__alt_data_end+0xff001a98>
    1b94:	0085c83a 	sub	r2,zero,r2
    1b98:	003fcd06 	br	1ad0 <__alt_data_end+0xff001ad0>
    1b9c:	d0e6d117 	ldw	r3,-25788(gp)
    1ba0:	52800044 	addi	r10,r10,1
    1ba4:	197fffc4 	addi	r5,r3,-1
    1ba8:	517fb716 	blt	r10,r5,1a88 <__alt_data_end+0xff001a88>
    1bac:	dfc00317 	ldw	ra,12(sp)
    1bb0:	dc800217 	ldw	r18,8(sp)
    1bb4:	dc400117 	ldw	r17,4(sp)
    1bb8:	dc000017 	ldw	r16,0(sp)
    1bbc:	dec00404 	addi	sp,sp,16
    1bc0:	f800283a 	ret

00001bc4 <GetSobel_rgb>:
    1bc4:	d0a6d417 	ldw	r2,-25776(gp)
    1bc8:	f800283a 	ret

00001bcc <GetSobelResult>:
    1bcc:	d0a6d017 	ldw	r2,-25792(gp)
    1bd0:	f800283a 	ret

00001bd4 <vga_set_pointer>:
    1bd4:	00804034 	movhi	r2,256
    1bd8:	10843404 	addi	r2,r2,4304
    1bdc:	11000035 	stwio	r4,0(r2)
    1be0:	f800283a 	ret

00001be4 <vga_set_swap>:
    1be4:	00804034 	movhi	r2,256
    1be8:	10843504 	addi	r2,r2,4308
    1bec:	11000025 	stbio	r4,0(r2)
    1bf0:	f800283a 	ret

00001bf4 <__divsi3>:
    1bf4:	20001b16 	blt	r4,zero,1c64 <__divsi3+0x70>
    1bf8:	000f883a 	mov	r7,zero
    1bfc:	28001616 	blt	r5,zero,1c58 <__divsi3+0x64>
    1c00:	200d883a 	mov	r6,r4
    1c04:	29001a2e 	bgeu	r5,r4,1c70 <__divsi3+0x7c>
    1c08:	00800804 	movi	r2,32
    1c0c:	00c00044 	movi	r3,1
    1c10:	00000106 	br	1c18 <__divsi3+0x24>
    1c14:	10000d26 	beq	r2,zero,1c4c <__divsi3+0x58>
    1c18:	294b883a 	add	r5,r5,r5
    1c1c:	10bfffc4 	addi	r2,r2,-1
    1c20:	18c7883a 	add	r3,r3,r3
    1c24:	293ffb36 	bltu	r5,r4,1c14 <__alt_data_end+0xff001c14>
    1c28:	0005883a 	mov	r2,zero
    1c2c:	18000726 	beq	r3,zero,1c4c <__divsi3+0x58>
    1c30:	0005883a 	mov	r2,zero
    1c34:	31400236 	bltu	r6,r5,1c40 <__divsi3+0x4c>
    1c38:	314dc83a 	sub	r6,r6,r5
    1c3c:	10c4b03a 	or	r2,r2,r3
    1c40:	1806d07a 	srli	r3,r3,1
    1c44:	280ad07a 	srli	r5,r5,1
    1c48:	183ffa1e 	bne	r3,zero,1c34 <__alt_data_end+0xff001c34>
    1c4c:	38000126 	beq	r7,zero,1c54 <__divsi3+0x60>
    1c50:	0085c83a 	sub	r2,zero,r2
    1c54:	f800283a 	ret
    1c58:	014bc83a 	sub	r5,zero,r5
    1c5c:	39c0005c 	xori	r7,r7,1
    1c60:	003fe706 	br	1c00 <__alt_data_end+0xff001c00>
    1c64:	0109c83a 	sub	r4,zero,r4
    1c68:	01c00044 	movi	r7,1
    1c6c:	003fe306 	br	1bfc <__alt_data_end+0xff001bfc>
    1c70:	00c00044 	movi	r3,1
    1c74:	003fee06 	br	1c30 <__alt_data_end+0xff001c30>

00001c78 <__modsi3>:
    1c78:	20001716 	blt	r4,zero,1cd8 <__modsi3+0x60>
    1c7c:	000f883a 	mov	r7,zero
    1c80:	2005883a 	mov	r2,r4
    1c84:	28001216 	blt	r5,zero,1cd0 <__modsi3+0x58>
    1c88:	2900162e 	bgeu	r5,r4,1ce4 <__modsi3+0x6c>
    1c8c:	01800804 	movi	r6,32
    1c90:	00c00044 	movi	r3,1
    1c94:	00000106 	br	1c9c <__modsi3+0x24>
    1c98:	30000a26 	beq	r6,zero,1cc4 <__modsi3+0x4c>
    1c9c:	294b883a 	add	r5,r5,r5
    1ca0:	31bfffc4 	addi	r6,r6,-1
    1ca4:	18c7883a 	add	r3,r3,r3
    1ca8:	293ffb36 	bltu	r5,r4,1c98 <__alt_data_end+0xff001c98>
    1cac:	18000526 	beq	r3,zero,1cc4 <__modsi3+0x4c>
    1cb0:	1806d07a 	srli	r3,r3,1
    1cb4:	11400136 	bltu	r2,r5,1cbc <__modsi3+0x44>
    1cb8:	1145c83a 	sub	r2,r2,r5
    1cbc:	280ad07a 	srli	r5,r5,1
    1cc0:	183ffb1e 	bne	r3,zero,1cb0 <__alt_data_end+0xff001cb0>
    1cc4:	38000126 	beq	r7,zero,1ccc <__modsi3+0x54>
    1cc8:	0085c83a 	sub	r2,zero,r2
    1ccc:	f800283a 	ret
    1cd0:	014bc83a 	sub	r5,zero,r5
    1cd4:	003fec06 	br	1c88 <__alt_data_end+0xff001c88>
    1cd8:	0109c83a 	sub	r4,zero,r4
    1cdc:	01c00044 	movi	r7,1
    1ce0:	003fe706 	br	1c80 <__alt_data_end+0xff001c80>
    1ce4:	00c00044 	movi	r3,1
    1ce8:	003ff106 	br	1cb0 <__alt_data_end+0xff001cb0>

00001cec <__udivsi3>:
    1cec:	200d883a 	mov	r6,r4
    1cf0:	2900152e 	bgeu	r5,r4,1d48 <__udivsi3+0x5c>
    1cf4:	28001416 	blt	r5,zero,1d48 <__udivsi3+0x5c>
    1cf8:	00800804 	movi	r2,32
    1cfc:	00c00044 	movi	r3,1
    1d00:	00000206 	br	1d0c <__udivsi3+0x20>
    1d04:	10000e26 	beq	r2,zero,1d40 <__udivsi3+0x54>
    1d08:	28000516 	blt	r5,zero,1d20 <__udivsi3+0x34>
    1d0c:	294b883a 	add	r5,r5,r5
    1d10:	10bfffc4 	addi	r2,r2,-1
    1d14:	18c7883a 	add	r3,r3,r3
    1d18:	293ffa36 	bltu	r5,r4,1d04 <__alt_data_end+0xff001d04>
    1d1c:	18000826 	beq	r3,zero,1d40 <__udivsi3+0x54>
    1d20:	0005883a 	mov	r2,zero
    1d24:	31400236 	bltu	r6,r5,1d30 <__udivsi3+0x44>
    1d28:	314dc83a 	sub	r6,r6,r5
    1d2c:	10c4b03a 	or	r2,r2,r3
    1d30:	1806d07a 	srli	r3,r3,1
    1d34:	280ad07a 	srli	r5,r5,1
    1d38:	183ffa1e 	bne	r3,zero,1d24 <__alt_data_end+0xff001d24>
    1d3c:	f800283a 	ret
    1d40:	0005883a 	mov	r2,zero
    1d44:	f800283a 	ret
    1d48:	00c00044 	movi	r3,1
    1d4c:	003ff406 	br	1d20 <__alt_data_end+0xff001d20>

00001d50 <__umodsi3>:
    1d50:	2005883a 	mov	r2,r4
    1d54:	2900122e 	bgeu	r5,r4,1da0 <__umodsi3+0x50>
    1d58:	28001116 	blt	r5,zero,1da0 <__umodsi3+0x50>
    1d5c:	01800804 	movi	r6,32
    1d60:	00c00044 	movi	r3,1
    1d64:	00000206 	br	1d70 <__umodsi3+0x20>
    1d68:	30000c26 	beq	r6,zero,1d9c <__umodsi3+0x4c>
    1d6c:	28000516 	blt	r5,zero,1d84 <__umodsi3+0x34>
    1d70:	294b883a 	add	r5,r5,r5
    1d74:	31bfffc4 	addi	r6,r6,-1
    1d78:	18c7883a 	add	r3,r3,r3
    1d7c:	293ffa36 	bltu	r5,r4,1d68 <__alt_data_end+0xff001d68>
    1d80:	18000626 	beq	r3,zero,1d9c <__umodsi3+0x4c>
    1d84:	1806d07a 	srli	r3,r3,1
    1d88:	11400136 	bltu	r2,r5,1d90 <__umodsi3+0x40>
    1d8c:	1145c83a 	sub	r2,r2,r5
    1d90:	280ad07a 	srli	r5,r5,1
    1d94:	183ffb1e 	bne	r3,zero,1d84 <__alt_data_end+0xff001d84>
    1d98:	f800283a 	ret
    1d9c:	f800283a 	ret
    1da0:	00c00044 	movi	r3,1
    1da4:	003ff706 	br	1d84 <__alt_data_end+0xff001d84>

00001da8 <malloc>:
    1da8:	00800074 	movhi	r2,1
    1dac:	108c7504 	addi	r2,r2,12756
    1db0:	200b883a 	mov	r5,r4
    1db4:	11000017 	ldw	r4,0(r2)
    1db8:	0001dd01 	jmpi	1dd0 <_malloc_r>

00001dbc <free>:
    1dbc:	00800074 	movhi	r2,1
    1dc0:	108c7504 	addi	r2,r2,12756
    1dc4:	200b883a 	mov	r5,r4
    1dc8:	11000017 	ldw	r4,0(r2)
    1dcc:	0006c201 	jmpi	6c20 <_free_r>

00001dd0 <_malloc_r>:
    1dd0:	defff504 	addi	sp,sp,-44
    1dd4:	dc800315 	stw	r18,12(sp)
    1dd8:	dfc00a15 	stw	ra,40(sp)
    1ddc:	df000915 	stw	fp,36(sp)
    1de0:	ddc00815 	stw	r23,32(sp)
    1de4:	dd800715 	stw	r22,28(sp)
    1de8:	dd400615 	stw	r21,24(sp)
    1dec:	dd000515 	stw	r20,20(sp)
    1df0:	dcc00415 	stw	r19,16(sp)
    1df4:	dc400215 	stw	r17,8(sp)
    1df8:	dc000115 	stw	r16,4(sp)
    1dfc:	288002c4 	addi	r2,r5,11
    1e00:	00c00584 	movi	r3,22
    1e04:	2025883a 	mov	r18,r4
    1e08:	18807f2e 	bgeu	r3,r2,2008 <_malloc_r+0x238>
    1e0c:	047ffe04 	movi	r17,-8
    1e10:	1462703a 	and	r17,r2,r17
    1e14:	8800a316 	blt	r17,zero,20a4 <_malloc_r+0x2d4>
    1e18:	8940a236 	bltu	r17,r5,20a4 <_malloc_r+0x2d4>
    1e1c:	000eab80 	call	eab8 <__malloc_lock>
    1e20:	00807dc4 	movi	r2,503
    1e24:	1441e92e 	bgeu	r2,r17,25cc <_malloc_r+0x7fc>
    1e28:	8804d27a 	srli	r2,r17,9
    1e2c:	1000a126 	beq	r2,zero,20b4 <_malloc_r+0x2e4>
    1e30:	00c00104 	movi	r3,4
    1e34:	18811e36 	bltu	r3,r2,22b0 <_malloc_r+0x4e0>
    1e38:	8804d1ba 	srli	r2,r17,6
    1e3c:	12000e44 	addi	r8,r2,57
    1e40:	11c00e04 	addi	r7,r2,56
    1e44:	4209883a 	add	r4,r8,r8
    1e48:	04c00074 	movhi	r19,1
    1e4c:	2109883a 	add	r4,r4,r4
    1e50:	9cc5c704 	addi	r19,r19,5916
    1e54:	2109883a 	add	r4,r4,r4
    1e58:	9909883a 	add	r4,r19,r4
    1e5c:	24000117 	ldw	r16,4(r4)
    1e60:	213ffe04 	addi	r4,r4,-8
    1e64:	24009726 	beq	r4,r16,20c4 <_malloc_r+0x2f4>
    1e68:	80800117 	ldw	r2,4(r16)
    1e6c:	01bfff04 	movi	r6,-4
    1e70:	014003c4 	movi	r5,15
    1e74:	1184703a 	and	r2,r2,r6
    1e78:	1447c83a 	sub	r3,r2,r17
    1e7c:	28c00716 	blt	r5,r3,1e9c <_malloc_r+0xcc>
    1e80:	1800920e 	bge	r3,zero,20cc <_malloc_r+0x2fc>
    1e84:	84000317 	ldw	r16,12(r16)
    1e88:	24008e26 	beq	r4,r16,20c4 <_malloc_r+0x2f4>
    1e8c:	80800117 	ldw	r2,4(r16)
    1e90:	1184703a 	and	r2,r2,r6
    1e94:	1447c83a 	sub	r3,r2,r17
    1e98:	28fff90e 	bge	r5,r3,1e80 <__alt_data_end+0xff001e80>
    1e9c:	3809883a 	mov	r4,r7
    1ea0:	01800074 	movhi	r6,1
    1ea4:	9c000417 	ldw	r16,16(r19)
    1ea8:	3185c704 	addi	r6,r6,5916
    1eac:	32000204 	addi	r8,r6,8
    1eb0:	82013426 	beq	r16,r8,2384 <_malloc_r+0x5b4>
    1eb4:	80c00117 	ldw	r3,4(r16)
    1eb8:	00bfff04 	movi	r2,-4
    1ebc:	188e703a 	and	r7,r3,r2
    1ec0:	3c45c83a 	sub	r2,r7,r17
    1ec4:	00c003c4 	movi	r3,15
    1ec8:	18811f16 	blt	r3,r2,2348 <_malloc_r+0x578>
    1ecc:	32000515 	stw	r8,20(r6)
    1ed0:	32000415 	stw	r8,16(r6)
    1ed4:	10007f0e 	bge	r2,zero,20d4 <_malloc_r+0x304>
    1ed8:	00807fc4 	movi	r2,511
    1edc:	11c0fd36 	bltu	r2,r7,22d4 <_malloc_r+0x504>
    1ee0:	3806d0fa 	srli	r3,r7,3
    1ee4:	01c00044 	movi	r7,1
    1ee8:	30800117 	ldw	r2,4(r6)
    1eec:	19400044 	addi	r5,r3,1
    1ef0:	294b883a 	add	r5,r5,r5
    1ef4:	1807d0ba 	srai	r3,r3,2
    1ef8:	294b883a 	add	r5,r5,r5
    1efc:	294b883a 	add	r5,r5,r5
    1f00:	298b883a 	add	r5,r5,r6
    1f04:	38c6983a 	sll	r3,r7,r3
    1f08:	29c00017 	ldw	r7,0(r5)
    1f0c:	2a7ffe04 	addi	r9,r5,-8
    1f10:	1886b03a 	or	r3,r3,r2
    1f14:	82400315 	stw	r9,12(r16)
    1f18:	81c00215 	stw	r7,8(r16)
    1f1c:	30c00115 	stw	r3,4(r6)
    1f20:	2c000015 	stw	r16,0(r5)
    1f24:	3c000315 	stw	r16,12(r7)
    1f28:	2005d0ba 	srai	r2,r4,2
    1f2c:	01400044 	movi	r5,1
    1f30:	288a983a 	sll	r5,r5,r2
    1f34:	19406f36 	bltu	r3,r5,20f4 <_malloc_r+0x324>
    1f38:	28c4703a 	and	r2,r5,r3
    1f3c:	10000a1e 	bne	r2,zero,1f68 <_malloc_r+0x198>
    1f40:	00bfff04 	movi	r2,-4
    1f44:	294b883a 	add	r5,r5,r5
    1f48:	2088703a 	and	r4,r4,r2
    1f4c:	28c4703a 	and	r2,r5,r3
    1f50:	21000104 	addi	r4,r4,4
    1f54:	1000041e 	bne	r2,zero,1f68 <_malloc_r+0x198>
    1f58:	294b883a 	add	r5,r5,r5
    1f5c:	28c4703a 	and	r2,r5,r3
    1f60:	21000104 	addi	r4,r4,4
    1f64:	103ffc26 	beq	r2,zero,1f58 <__alt_data_end+0xff001f58>
    1f68:	02bfff04 	movi	r10,-4
    1f6c:	024003c4 	movi	r9,15
    1f70:	21800044 	addi	r6,r4,1
    1f74:	318d883a 	add	r6,r6,r6
    1f78:	318d883a 	add	r6,r6,r6
    1f7c:	318d883a 	add	r6,r6,r6
    1f80:	998d883a 	add	r6,r19,r6
    1f84:	333ffe04 	addi	r12,r6,-8
    1f88:	2017883a 	mov	r11,r4
    1f8c:	31800104 	addi	r6,r6,4
    1f90:	34000017 	ldw	r16,0(r6)
    1f94:	31fffd04 	addi	r7,r6,-12
    1f98:	81c0041e 	bne	r16,r7,1fac <_malloc_r+0x1dc>
    1f9c:	0000fb06 	br	238c <_malloc_r+0x5bc>
    1fa0:	1801030e 	bge	r3,zero,23b0 <_malloc_r+0x5e0>
    1fa4:	84000317 	ldw	r16,12(r16)
    1fa8:	81c0f826 	beq	r16,r7,238c <_malloc_r+0x5bc>
    1fac:	80800117 	ldw	r2,4(r16)
    1fb0:	1284703a 	and	r2,r2,r10
    1fb4:	1447c83a 	sub	r3,r2,r17
    1fb8:	48fff90e 	bge	r9,r3,1fa0 <__alt_data_end+0xff001fa0>
    1fbc:	80800317 	ldw	r2,12(r16)
    1fc0:	81000217 	ldw	r4,8(r16)
    1fc4:	89400054 	ori	r5,r17,1
    1fc8:	81400115 	stw	r5,4(r16)
    1fcc:	20800315 	stw	r2,12(r4)
    1fd0:	11000215 	stw	r4,8(r2)
    1fd4:	8463883a 	add	r17,r16,r17
    1fd8:	9c400515 	stw	r17,20(r19)
    1fdc:	9c400415 	stw	r17,16(r19)
    1fe0:	18800054 	ori	r2,r3,1
    1fe4:	88800115 	stw	r2,4(r17)
    1fe8:	8a000315 	stw	r8,12(r17)
    1fec:	8a000215 	stw	r8,8(r17)
    1ff0:	88e3883a 	add	r17,r17,r3
    1ff4:	88c00015 	stw	r3,0(r17)
    1ff8:	9009883a 	mov	r4,r18
    1ffc:	000eadc0 	call	eadc <__malloc_unlock>
    2000:	80800204 	addi	r2,r16,8
    2004:	00001b06 	br	2074 <_malloc_r+0x2a4>
    2008:	04400404 	movi	r17,16
    200c:	89402536 	bltu	r17,r5,20a4 <_malloc_r+0x2d4>
    2010:	000eab80 	call	eab8 <__malloc_lock>
    2014:	00800184 	movi	r2,6
    2018:	01000084 	movi	r4,2
    201c:	04c00074 	movhi	r19,1
    2020:	1085883a 	add	r2,r2,r2
    2024:	9cc5c704 	addi	r19,r19,5916
    2028:	1085883a 	add	r2,r2,r2
    202c:	9885883a 	add	r2,r19,r2
    2030:	14000117 	ldw	r16,4(r2)
    2034:	10fffe04 	addi	r3,r2,-8
    2038:	80c0d926 	beq	r16,r3,23a0 <_malloc_r+0x5d0>
    203c:	80c00117 	ldw	r3,4(r16)
    2040:	81000317 	ldw	r4,12(r16)
    2044:	00bfff04 	movi	r2,-4
    2048:	1884703a 	and	r2,r3,r2
    204c:	81400217 	ldw	r5,8(r16)
    2050:	8085883a 	add	r2,r16,r2
    2054:	10c00117 	ldw	r3,4(r2)
    2058:	29000315 	stw	r4,12(r5)
    205c:	21400215 	stw	r5,8(r4)
    2060:	18c00054 	ori	r3,r3,1
    2064:	10c00115 	stw	r3,4(r2)
    2068:	9009883a 	mov	r4,r18
    206c:	000eadc0 	call	eadc <__malloc_unlock>
    2070:	80800204 	addi	r2,r16,8
    2074:	dfc00a17 	ldw	ra,40(sp)
    2078:	df000917 	ldw	fp,36(sp)
    207c:	ddc00817 	ldw	r23,32(sp)
    2080:	dd800717 	ldw	r22,28(sp)
    2084:	dd400617 	ldw	r21,24(sp)
    2088:	dd000517 	ldw	r20,20(sp)
    208c:	dcc00417 	ldw	r19,16(sp)
    2090:	dc800317 	ldw	r18,12(sp)
    2094:	dc400217 	ldw	r17,8(sp)
    2098:	dc000117 	ldw	r16,4(sp)
    209c:	dec00b04 	addi	sp,sp,44
    20a0:	f800283a 	ret
    20a4:	00800304 	movi	r2,12
    20a8:	90800015 	stw	r2,0(r18)
    20ac:	0005883a 	mov	r2,zero
    20b0:	003ff006 	br	2074 <__alt_data_end+0xff002074>
    20b4:	01002004 	movi	r4,128
    20b8:	02001004 	movi	r8,64
    20bc:	01c00fc4 	movi	r7,63
    20c0:	003f6106 	br	1e48 <__alt_data_end+0xff001e48>
    20c4:	4009883a 	mov	r4,r8
    20c8:	003f7506 	br	1ea0 <__alt_data_end+0xff001ea0>
    20cc:	81000317 	ldw	r4,12(r16)
    20d0:	003fde06 	br	204c <__alt_data_end+0xff00204c>
    20d4:	81c5883a 	add	r2,r16,r7
    20d8:	11400117 	ldw	r5,4(r2)
    20dc:	9009883a 	mov	r4,r18
    20e0:	29400054 	ori	r5,r5,1
    20e4:	11400115 	stw	r5,4(r2)
    20e8:	000eadc0 	call	eadc <__malloc_unlock>
    20ec:	80800204 	addi	r2,r16,8
    20f0:	003fe006 	br	2074 <__alt_data_end+0xff002074>
    20f4:	9c000217 	ldw	r16,8(r19)
    20f8:	00bfff04 	movi	r2,-4
    20fc:	85800117 	ldw	r22,4(r16)
    2100:	b0ac703a 	and	r22,r22,r2
    2104:	b4400336 	bltu	r22,r17,2114 <_malloc_r+0x344>
    2108:	b445c83a 	sub	r2,r22,r17
    210c:	00c003c4 	movi	r3,15
    2110:	18805d16 	blt	r3,r2,2288 <_malloc_r+0x4b8>
    2114:	05c00074 	movhi	r23,1
    2118:	00800074 	movhi	r2,1
    211c:	10934904 	addi	r2,r2,19748
    2120:	bdcc7204 	addi	r23,r23,12744
    2124:	15400017 	ldw	r21,0(r2)
    2128:	b8c00017 	ldw	r3,0(r23)
    212c:	00bfffc4 	movi	r2,-1
    2130:	858d883a 	add	r6,r16,r22
    2134:	8d6b883a 	add	r21,r17,r21
    2138:	1880ea26 	beq	r3,r2,24e4 <_malloc_r+0x714>
    213c:	ad4403c4 	addi	r21,r21,4111
    2140:	00bc0004 	movi	r2,-4096
    2144:	a8aa703a 	and	r21,r21,r2
    2148:	a80b883a 	mov	r5,r21
    214c:	9009883a 	mov	r4,r18
    2150:	d9800015 	stw	r6,0(sp)
    2154:	000271c0 	call	271c <_sbrk_r>
    2158:	1029883a 	mov	r20,r2
    215c:	00bfffc4 	movi	r2,-1
    2160:	d9800017 	ldw	r6,0(sp)
    2164:	a080e826 	beq	r20,r2,2508 <_malloc_r+0x738>
    2168:	a180a636 	bltu	r20,r6,2404 <_malloc_r+0x634>
    216c:	07000074 	movhi	fp,1
    2170:	e7135704 	addi	fp,fp,19804
    2174:	e0800017 	ldw	r2,0(fp)
    2178:	a887883a 	add	r3,r21,r2
    217c:	e0c00015 	stw	r3,0(fp)
    2180:	3500e626 	beq	r6,r20,251c <_malloc_r+0x74c>
    2184:	b9000017 	ldw	r4,0(r23)
    2188:	00bfffc4 	movi	r2,-1
    218c:	2080ee26 	beq	r4,r2,2548 <_malloc_r+0x778>
    2190:	a185c83a 	sub	r2,r20,r6
    2194:	10c5883a 	add	r2,r2,r3
    2198:	e0800015 	stw	r2,0(fp)
    219c:	a0c001cc 	andi	r3,r20,7
    21a0:	1800bc26 	beq	r3,zero,2494 <_malloc_r+0x6c4>
    21a4:	a0e9c83a 	sub	r20,r20,r3
    21a8:	00840204 	movi	r2,4104
    21ac:	a5000204 	addi	r20,r20,8
    21b0:	10c7c83a 	sub	r3,r2,r3
    21b4:	a545883a 	add	r2,r20,r21
    21b8:	1083ffcc 	andi	r2,r2,4095
    21bc:	18abc83a 	sub	r21,r3,r2
    21c0:	a80b883a 	mov	r5,r21
    21c4:	9009883a 	mov	r4,r18
    21c8:	000271c0 	call	271c <_sbrk_r>
    21cc:	00ffffc4 	movi	r3,-1
    21d0:	10c0e126 	beq	r2,r3,2558 <_malloc_r+0x788>
    21d4:	1505c83a 	sub	r2,r2,r20
    21d8:	1545883a 	add	r2,r2,r21
    21dc:	10800054 	ori	r2,r2,1
    21e0:	e0c00017 	ldw	r3,0(fp)
    21e4:	9d000215 	stw	r20,8(r19)
    21e8:	a0800115 	stw	r2,4(r20)
    21ec:	a8c7883a 	add	r3,r21,r3
    21f0:	e0c00015 	stw	r3,0(fp)
    21f4:	84c00e26 	beq	r16,r19,2230 <_malloc_r+0x460>
    21f8:	018003c4 	movi	r6,15
    21fc:	3580a72e 	bgeu	r6,r22,249c <_malloc_r+0x6cc>
    2200:	81400117 	ldw	r5,4(r16)
    2204:	013ffe04 	movi	r4,-8
    2208:	b0bffd04 	addi	r2,r22,-12
    220c:	1104703a 	and	r2,r2,r4
    2210:	2900004c 	andi	r4,r5,1
    2214:	2088b03a 	or	r4,r4,r2
    2218:	81000115 	stw	r4,4(r16)
    221c:	01400144 	movi	r5,5
    2220:	8089883a 	add	r4,r16,r2
    2224:	21400115 	stw	r5,4(r4)
    2228:	21400215 	stw	r5,8(r4)
    222c:	3080cd36 	bltu	r6,r2,2564 <_malloc_r+0x794>
    2230:	00800074 	movhi	r2,1
    2234:	10934804 	addi	r2,r2,19744
    2238:	11000017 	ldw	r4,0(r2)
    223c:	20c0012e 	bgeu	r4,r3,2244 <_malloc_r+0x474>
    2240:	10c00015 	stw	r3,0(r2)
    2244:	00800074 	movhi	r2,1
    2248:	10934704 	addi	r2,r2,19740
    224c:	11000017 	ldw	r4,0(r2)
    2250:	9c000217 	ldw	r16,8(r19)
    2254:	20c0012e 	bgeu	r4,r3,225c <_malloc_r+0x48c>
    2258:	10c00015 	stw	r3,0(r2)
    225c:	80c00117 	ldw	r3,4(r16)
    2260:	00bfff04 	movi	r2,-4
    2264:	1886703a 	and	r3,r3,r2
    2268:	1c45c83a 	sub	r2,r3,r17
    226c:	1c400236 	bltu	r3,r17,2278 <_malloc_r+0x4a8>
    2270:	00c003c4 	movi	r3,15
    2274:	18800416 	blt	r3,r2,2288 <_malloc_r+0x4b8>
    2278:	9009883a 	mov	r4,r18
    227c:	000eadc0 	call	eadc <__malloc_unlock>
    2280:	0005883a 	mov	r2,zero
    2284:	003f7b06 	br	2074 <__alt_data_end+0xff002074>
    2288:	88c00054 	ori	r3,r17,1
    228c:	80c00115 	stw	r3,4(r16)
    2290:	8463883a 	add	r17,r16,r17
    2294:	10800054 	ori	r2,r2,1
    2298:	9c400215 	stw	r17,8(r19)
    229c:	88800115 	stw	r2,4(r17)
    22a0:	9009883a 	mov	r4,r18
    22a4:	000eadc0 	call	eadc <__malloc_unlock>
    22a8:	80800204 	addi	r2,r16,8
    22ac:	003f7106 	br	2074 <__alt_data_end+0xff002074>
    22b0:	00c00504 	movi	r3,20
    22b4:	18804a2e 	bgeu	r3,r2,23e0 <_malloc_r+0x610>
    22b8:	00c01504 	movi	r3,84
    22bc:	18806e36 	bltu	r3,r2,2478 <_malloc_r+0x6a8>
    22c0:	8804d33a 	srli	r2,r17,12
    22c4:	12001bc4 	addi	r8,r2,111
    22c8:	11c01b84 	addi	r7,r2,110
    22cc:	4209883a 	add	r4,r8,r8
    22d0:	003edd06 	br	1e48 <__alt_data_end+0xff001e48>
    22d4:	3804d27a 	srli	r2,r7,9
    22d8:	00c00104 	movi	r3,4
    22dc:	1880442e 	bgeu	r3,r2,23f0 <_malloc_r+0x620>
    22e0:	00c00504 	movi	r3,20
    22e4:	18808136 	bltu	r3,r2,24ec <_malloc_r+0x71c>
    22e8:	11401704 	addi	r5,r2,92
    22ec:	10c016c4 	addi	r3,r2,91
    22f0:	294b883a 	add	r5,r5,r5
    22f4:	294b883a 	add	r5,r5,r5
    22f8:	294b883a 	add	r5,r5,r5
    22fc:	994b883a 	add	r5,r19,r5
    2300:	28800017 	ldw	r2,0(r5)
    2304:	01800074 	movhi	r6,1
    2308:	297ffe04 	addi	r5,r5,-8
    230c:	3185c704 	addi	r6,r6,5916
    2310:	28806526 	beq	r5,r2,24a8 <_malloc_r+0x6d8>
    2314:	01bfff04 	movi	r6,-4
    2318:	10c00117 	ldw	r3,4(r2)
    231c:	1986703a 	and	r3,r3,r6
    2320:	38c0022e 	bgeu	r7,r3,232c <_malloc_r+0x55c>
    2324:	10800217 	ldw	r2,8(r2)
    2328:	28bffb1e 	bne	r5,r2,2318 <__alt_data_end+0xff002318>
    232c:	11400317 	ldw	r5,12(r2)
    2330:	98c00117 	ldw	r3,4(r19)
    2334:	81400315 	stw	r5,12(r16)
    2338:	80800215 	stw	r2,8(r16)
    233c:	2c000215 	stw	r16,8(r5)
    2340:	14000315 	stw	r16,12(r2)
    2344:	003ef806 	br	1f28 <__alt_data_end+0xff001f28>
    2348:	88c00054 	ori	r3,r17,1
    234c:	80c00115 	stw	r3,4(r16)
    2350:	8463883a 	add	r17,r16,r17
    2354:	34400515 	stw	r17,20(r6)
    2358:	34400415 	stw	r17,16(r6)
    235c:	10c00054 	ori	r3,r2,1
    2360:	8a000315 	stw	r8,12(r17)
    2364:	8a000215 	stw	r8,8(r17)
    2368:	88c00115 	stw	r3,4(r17)
    236c:	88a3883a 	add	r17,r17,r2
    2370:	88800015 	stw	r2,0(r17)
    2374:	9009883a 	mov	r4,r18
    2378:	000eadc0 	call	eadc <__malloc_unlock>
    237c:	80800204 	addi	r2,r16,8
    2380:	003f3c06 	br	2074 <__alt_data_end+0xff002074>
    2384:	30c00117 	ldw	r3,4(r6)
    2388:	003ee706 	br	1f28 <__alt_data_end+0xff001f28>
    238c:	5ac00044 	addi	r11,r11,1
    2390:	588000cc 	andi	r2,r11,3
    2394:	31800204 	addi	r6,r6,8
    2398:	103efd1e 	bne	r2,zero,1f90 <__alt_data_end+0xff001f90>
    239c:	00002406 	br	2430 <_malloc_r+0x660>
    23a0:	14000317 	ldw	r16,12(r2)
    23a4:	143f251e 	bne	r2,r16,203c <__alt_data_end+0xff00203c>
    23a8:	21000084 	addi	r4,r4,2
    23ac:	003ebc06 	br	1ea0 <__alt_data_end+0xff001ea0>
    23b0:	8085883a 	add	r2,r16,r2
    23b4:	10c00117 	ldw	r3,4(r2)
    23b8:	81000317 	ldw	r4,12(r16)
    23bc:	81400217 	ldw	r5,8(r16)
    23c0:	18c00054 	ori	r3,r3,1
    23c4:	10c00115 	stw	r3,4(r2)
    23c8:	29000315 	stw	r4,12(r5)
    23cc:	21400215 	stw	r5,8(r4)
    23d0:	9009883a 	mov	r4,r18
    23d4:	000eadc0 	call	eadc <__malloc_unlock>
    23d8:	80800204 	addi	r2,r16,8
    23dc:	003f2506 	br	2074 <__alt_data_end+0xff002074>
    23e0:	12001704 	addi	r8,r2,92
    23e4:	11c016c4 	addi	r7,r2,91
    23e8:	4209883a 	add	r4,r8,r8
    23ec:	003e9606 	br	1e48 <__alt_data_end+0xff001e48>
    23f0:	3804d1ba 	srli	r2,r7,6
    23f4:	11400e44 	addi	r5,r2,57
    23f8:	10c00e04 	addi	r3,r2,56
    23fc:	294b883a 	add	r5,r5,r5
    2400:	003fbc06 	br	22f4 <__alt_data_end+0xff0022f4>
    2404:	84ff5926 	beq	r16,r19,216c <__alt_data_end+0xff00216c>
    2408:	00800074 	movhi	r2,1
    240c:	1085c704 	addi	r2,r2,5916
    2410:	14000217 	ldw	r16,8(r2)
    2414:	00bfff04 	movi	r2,-4
    2418:	80c00117 	ldw	r3,4(r16)
    241c:	1886703a 	and	r3,r3,r2
    2420:	003f9106 	br	2268 <__alt_data_end+0xff002268>
    2424:	60800217 	ldw	r2,8(r12)
    2428:	213fffc4 	addi	r4,r4,-1
    242c:	1300651e 	bne	r2,r12,25c4 <_malloc_r+0x7f4>
    2430:	208000cc 	andi	r2,r4,3
    2434:	633ffe04 	addi	r12,r12,-8
    2438:	103ffa1e 	bne	r2,zero,2424 <__alt_data_end+0xff002424>
    243c:	98800117 	ldw	r2,4(r19)
    2440:	0146303a 	nor	r3,zero,r5
    2444:	1884703a 	and	r2,r3,r2
    2448:	98800115 	stw	r2,4(r19)
    244c:	294b883a 	add	r5,r5,r5
    2450:	117f2836 	bltu	r2,r5,20f4 <__alt_data_end+0xff0020f4>
    2454:	283f2726 	beq	r5,zero,20f4 <__alt_data_end+0xff0020f4>
    2458:	2886703a 	and	r3,r5,r2
    245c:	5809883a 	mov	r4,r11
    2460:	183ec31e 	bne	r3,zero,1f70 <__alt_data_end+0xff001f70>
    2464:	294b883a 	add	r5,r5,r5
    2468:	2886703a 	and	r3,r5,r2
    246c:	21000104 	addi	r4,r4,4
    2470:	183ffc26 	beq	r3,zero,2464 <__alt_data_end+0xff002464>
    2474:	003ebe06 	br	1f70 <__alt_data_end+0xff001f70>
    2478:	00c05504 	movi	r3,340
    247c:	18801236 	bltu	r3,r2,24c8 <_malloc_r+0x6f8>
    2480:	8804d3fa 	srli	r2,r17,15
    2484:	12001e04 	addi	r8,r2,120
    2488:	11c01dc4 	addi	r7,r2,119
    248c:	4209883a 	add	r4,r8,r8
    2490:	003e6d06 	br	1e48 <__alt_data_end+0xff001e48>
    2494:	00c40004 	movi	r3,4096
    2498:	003f4606 	br	21b4 <__alt_data_end+0xff0021b4>
    249c:	00800044 	movi	r2,1
    24a0:	a0800115 	stw	r2,4(r20)
    24a4:	003f7406 	br	2278 <__alt_data_end+0xff002278>
    24a8:	1805d0ba 	srai	r2,r3,2
    24ac:	01c00044 	movi	r7,1
    24b0:	30c00117 	ldw	r3,4(r6)
    24b4:	388e983a 	sll	r7,r7,r2
    24b8:	2805883a 	mov	r2,r5
    24bc:	38c6b03a 	or	r3,r7,r3
    24c0:	30c00115 	stw	r3,4(r6)
    24c4:	003f9b06 	br	2334 <__alt_data_end+0xff002334>
    24c8:	00c15504 	movi	r3,1364
    24cc:	18801a36 	bltu	r3,r2,2538 <_malloc_r+0x768>
    24d0:	8804d4ba 	srli	r2,r17,18
    24d4:	12001f44 	addi	r8,r2,125
    24d8:	11c01f04 	addi	r7,r2,124
    24dc:	4209883a 	add	r4,r8,r8
    24e0:	003e5906 	br	1e48 <__alt_data_end+0xff001e48>
    24e4:	ad400404 	addi	r21,r21,16
    24e8:	003f1706 	br	2148 <__alt_data_end+0xff002148>
    24ec:	00c01504 	movi	r3,84
    24f0:	18802336 	bltu	r3,r2,2580 <_malloc_r+0x7b0>
    24f4:	3804d33a 	srli	r2,r7,12
    24f8:	11401bc4 	addi	r5,r2,111
    24fc:	10c01b84 	addi	r3,r2,110
    2500:	294b883a 	add	r5,r5,r5
    2504:	003f7b06 	br	22f4 <__alt_data_end+0xff0022f4>
    2508:	9c000217 	ldw	r16,8(r19)
    250c:	00bfff04 	movi	r2,-4
    2510:	80c00117 	ldw	r3,4(r16)
    2514:	1886703a 	and	r3,r3,r2
    2518:	003f5306 	br	2268 <__alt_data_end+0xff002268>
    251c:	3083ffcc 	andi	r2,r6,4095
    2520:	103f181e 	bne	r2,zero,2184 <__alt_data_end+0xff002184>
    2524:	99000217 	ldw	r4,8(r19)
    2528:	b545883a 	add	r2,r22,r21
    252c:	10800054 	ori	r2,r2,1
    2530:	20800115 	stw	r2,4(r4)
    2534:	003f3e06 	br	2230 <__alt_data_end+0xff002230>
    2538:	01003f84 	movi	r4,254
    253c:	02001fc4 	movi	r8,127
    2540:	01c01f84 	movi	r7,126
    2544:	003e4006 	br	1e48 <__alt_data_end+0xff001e48>
    2548:	00800074 	movhi	r2,1
    254c:	108c7204 	addi	r2,r2,12744
    2550:	15000015 	stw	r20,0(r2)
    2554:	003f1106 	br	219c <__alt_data_end+0xff00219c>
    2558:	00800044 	movi	r2,1
    255c:	002b883a 	mov	r21,zero
    2560:	003f1f06 	br	21e0 <__alt_data_end+0xff0021e0>
    2564:	81400204 	addi	r5,r16,8
    2568:	9009883a 	mov	r4,r18
    256c:	0006c200 	call	6c20 <_free_r>
    2570:	00800074 	movhi	r2,1
    2574:	10935704 	addi	r2,r2,19804
    2578:	10c00017 	ldw	r3,0(r2)
    257c:	003f2c06 	br	2230 <__alt_data_end+0xff002230>
    2580:	00c05504 	movi	r3,340
    2584:	18800536 	bltu	r3,r2,259c <_malloc_r+0x7cc>
    2588:	3804d3fa 	srli	r2,r7,15
    258c:	11401e04 	addi	r5,r2,120
    2590:	10c01dc4 	addi	r3,r2,119
    2594:	294b883a 	add	r5,r5,r5
    2598:	003f5606 	br	22f4 <__alt_data_end+0xff0022f4>
    259c:	00c15504 	movi	r3,1364
    25a0:	18800536 	bltu	r3,r2,25b8 <_malloc_r+0x7e8>
    25a4:	3804d4ba 	srli	r2,r7,18
    25a8:	11401f44 	addi	r5,r2,125
    25ac:	10c01f04 	addi	r3,r2,124
    25b0:	294b883a 	add	r5,r5,r5
    25b4:	003f4f06 	br	22f4 <__alt_data_end+0xff0022f4>
    25b8:	01403f84 	movi	r5,254
    25bc:	00c01f84 	movi	r3,126
    25c0:	003f4c06 	br	22f4 <__alt_data_end+0xff0022f4>
    25c4:	98800117 	ldw	r2,4(r19)
    25c8:	003fa006 	br	244c <__alt_data_end+0xff00244c>
    25cc:	8808d0fa 	srli	r4,r17,3
    25d0:	20800044 	addi	r2,r4,1
    25d4:	1085883a 	add	r2,r2,r2
    25d8:	003e9006 	br	201c <__alt_data_end+0xff00201c>

000025dc <_printf_r>:
    25dc:	defffd04 	addi	sp,sp,-12
    25e0:	2805883a 	mov	r2,r5
    25e4:	dfc00015 	stw	ra,0(sp)
    25e8:	d9800115 	stw	r6,4(sp)
    25ec:	d9c00215 	stw	r7,8(sp)
    25f0:	21400217 	ldw	r5,8(r4)
    25f4:	d9c00104 	addi	r7,sp,4
    25f8:	100d883a 	mov	r6,r2
    25fc:	00028080 	call	2808 <___vfprintf_internal_r>
    2600:	dfc00017 	ldw	ra,0(sp)
    2604:	dec00304 	addi	sp,sp,12
    2608:	f800283a 	ret

0000260c <printf>:
    260c:	defffc04 	addi	sp,sp,-16
    2610:	dfc00015 	stw	ra,0(sp)
    2614:	d9400115 	stw	r5,4(sp)
    2618:	d9800215 	stw	r6,8(sp)
    261c:	d9c00315 	stw	r7,12(sp)
    2620:	00800074 	movhi	r2,1
    2624:	108c7504 	addi	r2,r2,12756
    2628:	10800017 	ldw	r2,0(r2)
    262c:	200b883a 	mov	r5,r4
    2630:	d9800104 	addi	r6,sp,4
    2634:	11000217 	ldw	r4,8(r2)
    2638:	0004a000 	call	4a00 <__vfprintf_internal>
    263c:	dfc00017 	ldw	ra,0(sp)
    2640:	dec00404 	addi	sp,sp,16
    2644:	f800283a 	ret

00002648 <_puts_r>:
    2648:	defff604 	addi	sp,sp,-40
    264c:	dc000715 	stw	r16,28(sp)
    2650:	2021883a 	mov	r16,r4
    2654:	2809883a 	mov	r4,r5
    2658:	dc400815 	stw	r17,32(sp)
    265c:	dfc00915 	stw	ra,36(sp)
    2660:	2823883a 	mov	r17,r5
    2664:	00027700 	call	2770 <strlen>
    2668:	10c00044 	addi	r3,r2,1
    266c:	d8800115 	stw	r2,4(sp)
    2670:	00800074 	movhi	r2,1
    2674:	10850504 	addi	r2,r2,5140
    2678:	d8800215 	stw	r2,8(sp)
    267c:	00800044 	movi	r2,1
    2680:	d8800315 	stw	r2,12(sp)
    2684:	00800084 	movi	r2,2
    2688:	dc400015 	stw	r17,0(sp)
    268c:	d8c00615 	stw	r3,24(sp)
    2690:	dec00415 	stw	sp,16(sp)
    2694:	d8800515 	stw	r2,20(sp)
    2698:	80000226 	beq	r16,zero,26a4 <_puts_r+0x5c>
    269c:	80800e17 	ldw	r2,56(r16)
    26a0:	10001426 	beq	r2,zero,26f4 <_puts_r+0xac>
    26a4:	81400217 	ldw	r5,8(r16)
    26a8:	2880030b 	ldhu	r2,12(r5)
    26ac:	10c8000c 	andi	r3,r2,8192
    26b0:	1800061e 	bne	r3,zero,26cc <_puts_r+0x84>
    26b4:	29001917 	ldw	r4,100(r5)
    26b8:	00f7ffc4 	movi	r3,-8193
    26bc:	10880014 	ori	r2,r2,8192
    26c0:	20c6703a 	and	r3,r4,r3
    26c4:	2880030d 	sth	r2,12(r5)
    26c8:	28c01915 	stw	r3,100(r5)
    26cc:	d9800404 	addi	r6,sp,16
    26d0:	8009883a 	mov	r4,r16
    26d4:	0006f300 	call	6f30 <__sfvwrite_r>
    26d8:	1000091e 	bne	r2,zero,2700 <_puts_r+0xb8>
    26dc:	00800284 	movi	r2,10
    26e0:	dfc00917 	ldw	ra,36(sp)
    26e4:	dc400817 	ldw	r17,32(sp)
    26e8:	dc000717 	ldw	r16,28(sp)
    26ec:	dec00a04 	addi	sp,sp,40
    26f0:	f800283a 	ret
    26f4:	8009883a 	mov	r4,r16
    26f8:	0006aac0 	call	6aac <__sinit>
    26fc:	003fe906 	br	26a4 <__alt_data_end+0xff0026a4>
    2700:	00bfffc4 	movi	r2,-1
    2704:	003ff606 	br	26e0 <__alt_data_end+0xff0026e0>

00002708 <puts>:
    2708:	00800074 	movhi	r2,1
    270c:	108c7504 	addi	r2,r2,12756
    2710:	200b883a 	mov	r5,r4
    2714:	11000017 	ldw	r4,0(r2)
    2718:	00026481 	jmpi	2648 <_puts_r>

0000271c <_sbrk_r>:
    271c:	defffd04 	addi	sp,sp,-12
    2720:	dc000015 	stw	r16,0(sp)
    2724:	04000074 	movhi	r16,1
    2728:	dc400115 	stw	r17,4(sp)
    272c:	84134a04 	addi	r16,r16,19752
    2730:	2023883a 	mov	r17,r4
    2734:	2809883a 	mov	r4,r5
    2738:	dfc00215 	stw	ra,8(sp)
    273c:	80000015 	stw	zero,0(r16)
    2740:	000ec9c0 	call	ec9c <sbrk>
    2744:	00ffffc4 	movi	r3,-1
    2748:	10c00526 	beq	r2,r3,2760 <_sbrk_r+0x44>
    274c:	dfc00217 	ldw	ra,8(sp)
    2750:	dc400117 	ldw	r17,4(sp)
    2754:	dc000017 	ldw	r16,0(sp)
    2758:	dec00304 	addi	sp,sp,12
    275c:	f800283a 	ret
    2760:	80c00017 	ldw	r3,0(r16)
    2764:	183ff926 	beq	r3,zero,274c <__alt_data_end+0xff00274c>
    2768:	88c00015 	stw	r3,0(r17)
    276c:	003ff706 	br	274c <__alt_data_end+0xff00274c>

00002770 <strlen>:
    2770:	208000cc 	andi	r2,r4,3
    2774:	10002026 	beq	r2,zero,27f8 <strlen+0x88>
    2778:	20800007 	ldb	r2,0(r4)
    277c:	10002026 	beq	r2,zero,2800 <strlen+0x90>
    2780:	2005883a 	mov	r2,r4
    2784:	00000206 	br	2790 <strlen+0x20>
    2788:	10c00007 	ldb	r3,0(r2)
    278c:	18001826 	beq	r3,zero,27f0 <strlen+0x80>
    2790:	10800044 	addi	r2,r2,1
    2794:	10c000cc 	andi	r3,r2,3
    2798:	183ffb1e 	bne	r3,zero,2788 <__alt_data_end+0xff002788>
    279c:	10c00017 	ldw	r3,0(r2)
    27a0:	01ffbff4 	movhi	r7,65279
    27a4:	39ffbfc4 	addi	r7,r7,-257
    27a8:	00ca303a 	nor	r5,zero,r3
    27ac:	01a02074 	movhi	r6,32897
    27b0:	19c7883a 	add	r3,r3,r7
    27b4:	31a02004 	addi	r6,r6,-32640
    27b8:	1946703a 	and	r3,r3,r5
    27bc:	1986703a 	and	r3,r3,r6
    27c0:	1800091e 	bne	r3,zero,27e8 <strlen+0x78>
    27c4:	10800104 	addi	r2,r2,4
    27c8:	10c00017 	ldw	r3,0(r2)
    27cc:	19cb883a 	add	r5,r3,r7
    27d0:	00c6303a 	nor	r3,zero,r3
    27d4:	28c6703a 	and	r3,r5,r3
    27d8:	1986703a 	and	r3,r3,r6
    27dc:	183ff926 	beq	r3,zero,27c4 <__alt_data_end+0xff0027c4>
    27e0:	00000106 	br	27e8 <strlen+0x78>
    27e4:	10800044 	addi	r2,r2,1
    27e8:	10c00007 	ldb	r3,0(r2)
    27ec:	183ffd1e 	bne	r3,zero,27e4 <__alt_data_end+0xff0027e4>
    27f0:	1105c83a 	sub	r2,r2,r4
    27f4:	f800283a 	ret
    27f8:	2005883a 	mov	r2,r4
    27fc:	003fe706 	br	279c <__alt_data_end+0xff00279c>
    2800:	0005883a 	mov	r2,zero
    2804:	f800283a 	ret

00002808 <___vfprintf_internal_r>:
    2808:	deffb804 	addi	sp,sp,-288
    280c:	dfc04715 	stw	ra,284(sp)
    2810:	ddc04515 	stw	r23,276(sp)
    2814:	dd404315 	stw	r21,268(sp)
    2818:	d9002c15 	stw	r4,176(sp)
    281c:	282f883a 	mov	r23,r5
    2820:	302b883a 	mov	r21,r6
    2824:	d9c02d15 	stw	r7,180(sp)
    2828:	df004615 	stw	fp,280(sp)
    282c:	dd804415 	stw	r22,272(sp)
    2830:	dd004215 	stw	r20,264(sp)
    2834:	dcc04115 	stw	r19,260(sp)
    2838:	dc804015 	stw	r18,256(sp)
    283c:	dc403f15 	stw	r17,252(sp)
    2840:	dc003e15 	stw	r16,248(sp)
    2844:	00076200 	call	7620 <_localeconv_r>
    2848:	10800017 	ldw	r2,0(r2)
    284c:	1009883a 	mov	r4,r2
    2850:	d8803415 	stw	r2,208(sp)
    2854:	00027700 	call	2770 <strlen>
    2858:	d8803715 	stw	r2,220(sp)
    285c:	d8802c17 	ldw	r2,176(sp)
    2860:	10000226 	beq	r2,zero,286c <___vfprintf_internal_r+0x64>
    2864:	10800e17 	ldw	r2,56(r2)
    2868:	1000f926 	beq	r2,zero,2c50 <___vfprintf_internal_r+0x448>
    286c:	b880030b 	ldhu	r2,12(r23)
    2870:	10c8000c 	andi	r3,r2,8192
    2874:	1800061e 	bne	r3,zero,2890 <___vfprintf_internal_r+0x88>
    2878:	b9001917 	ldw	r4,100(r23)
    287c:	00f7ffc4 	movi	r3,-8193
    2880:	10880014 	ori	r2,r2,8192
    2884:	20c6703a 	and	r3,r4,r3
    2888:	b880030d 	sth	r2,12(r23)
    288c:	b8c01915 	stw	r3,100(r23)
    2890:	10c0020c 	andi	r3,r2,8
    2894:	1800c126 	beq	r3,zero,2b9c <___vfprintf_internal_r+0x394>
    2898:	b8c00417 	ldw	r3,16(r23)
    289c:	1800bf26 	beq	r3,zero,2b9c <___vfprintf_internal_r+0x394>
    28a0:	1080068c 	andi	r2,r2,26
    28a4:	00c00284 	movi	r3,10
    28a8:	10c0c426 	beq	r2,r3,2bbc <___vfprintf_internal_r+0x3b4>
    28ac:	d8c00404 	addi	r3,sp,16
    28b0:	05000074 	movhi	r20,1
    28b4:	d9001e04 	addi	r4,sp,120
    28b8:	a5051a84 	addi	r20,r20,5226
    28bc:	d8c01e15 	stw	r3,120(sp)
    28c0:	d8002015 	stw	zero,128(sp)
    28c4:	d8001f15 	stw	zero,124(sp)
    28c8:	d8003315 	stw	zero,204(sp)
    28cc:	d8003615 	stw	zero,216(sp)
    28d0:	d8003815 	stw	zero,224(sp)
    28d4:	1811883a 	mov	r8,r3
    28d8:	d8003915 	stw	zero,228(sp)
    28dc:	d8003a15 	stw	zero,232(sp)
    28e0:	d8002f15 	stw	zero,188(sp)
    28e4:	d9002815 	stw	r4,160(sp)
    28e8:	a8800007 	ldb	r2,0(r21)
    28ec:	10027b26 	beq	r2,zero,32dc <___vfprintf_internal_r+0xad4>
    28f0:	00c00944 	movi	r3,37
    28f4:	a821883a 	mov	r16,r21
    28f8:	10c0021e 	bne	r2,r3,2904 <___vfprintf_internal_r+0xfc>
    28fc:	00001406 	br	2950 <___vfprintf_internal_r+0x148>
    2900:	10c00326 	beq	r2,r3,2910 <___vfprintf_internal_r+0x108>
    2904:	84000044 	addi	r16,r16,1
    2908:	80800007 	ldb	r2,0(r16)
    290c:	103ffc1e 	bne	r2,zero,2900 <__alt_data_end+0xff002900>
    2910:	8563c83a 	sub	r17,r16,r21
    2914:	88000e26 	beq	r17,zero,2950 <___vfprintf_internal_r+0x148>
    2918:	d8c02017 	ldw	r3,128(sp)
    291c:	d8801f17 	ldw	r2,124(sp)
    2920:	45400015 	stw	r21,0(r8)
    2924:	1c47883a 	add	r3,r3,r17
    2928:	10800044 	addi	r2,r2,1
    292c:	d8c02015 	stw	r3,128(sp)
    2930:	44400115 	stw	r17,4(r8)
    2934:	d8801f15 	stw	r2,124(sp)
    2938:	00c001c4 	movi	r3,7
    293c:	1880a716 	blt	r3,r2,2bdc <___vfprintf_internal_r+0x3d4>
    2940:	42000204 	addi	r8,r8,8
    2944:	d9402f17 	ldw	r5,188(sp)
    2948:	2c4b883a 	add	r5,r5,r17
    294c:	d9402f15 	stw	r5,188(sp)
    2950:	80800007 	ldb	r2,0(r16)
    2954:	1000a826 	beq	r2,zero,2bf8 <___vfprintf_internal_r+0x3f0>
    2958:	84400047 	ldb	r17,1(r16)
    295c:	00bfffc4 	movi	r2,-1
    2960:	85400044 	addi	r21,r16,1
    2964:	d8002785 	stb	zero,158(sp)
    2968:	0007883a 	mov	r3,zero
    296c:	000f883a 	mov	r7,zero
    2970:	d8802915 	stw	r2,164(sp)
    2974:	d8003115 	stw	zero,196(sp)
    2978:	0025883a 	mov	r18,zero
    297c:	01401604 	movi	r5,88
    2980:	01800244 	movi	r6,9
    2984:	02800a84 	movi	r10,42
    2988:	02401b04 	movi	r9,108
    298c:	ad400044 	addi	r21,r21,1
    2990:	88bff804 	addi	r2,r17,-32
    2994:	28830436 	bltu	r5,r2,35a8 <___vfprintf_internal_r+0xda0>
    2998:	100490ba 	slli	r2,r2,2
    299c:	01000034 	movhi	r4,0
    29a0:	210a6c04 	addi	r4,r4,10672
    29a4:	1105883a 	add	r2,r2,r4
    29a8:	10800017 	ldw	r2,0(r2)
    29ac:	1000683a 	jmp	r2
    29b0:	000034c8 	cmpgei	zero,zero,211
    29b4:	000035a8 	cmpgeui	zero,zero,214
    29b8:	000035a8 	cmpgeui	zero,zero,214
    29bc:	000034e8 	cmpgeui	zero,zero,211
    29c0:	000035a8 	cmpgeui	zero,zero,214
    29c4:	000035a8 	cmpgeui	zero,zero,214
    29c8:	000035a8 	cmpgeui	zero,zero,214
    29cc:	000035a8 	cmpgeui	zero,zero,214
    29d0:	000035a8 	cmpgeui	zero,zero,214
    29d4:	000035a8 	cmpgeui	zero,zero,214
    29d8:	00002c5c 	xori	zero,zero,177
    29dc:	00003404 	movi	zero,208
    29e0:	000035a8 	cmpgeui	zero,zero,214
    29e4:	00002b24 	muli	zero,zero,172
    29e8:	00002c84 	movi	zero,178
    29ec:	000035a8 	cmpgeui	zero,zero,214
    29f0:	00002cc4 	movi	zero,179
    29f4:	00002cd0 	cmplti	zero,zero,179
    29f8:	00002cd0 	cmplti	zero,zero,179
    29fc:	00002cd0 	cmplti	zero,zero,179
    2a00:	00002cd0 	cmplti	zero,zero,179
    2a04:	00002cd0 	cmplti	zero,zero,179
    2a08:	00002cd0 	cmplti	zero,zero,179
    2a0c:	00002cd0 	cmplti	zero,zero,179
    2a10:	00002cd0 	cmplti	zero,zero,179
    2a14:	00002cd0 	cmplti	zero,zero,179
    2a18:	000035a8 	cmpgeui	zero,zero,214
    2a1c:	000035a8 	cmpgeui	zero,zero,214
    2a20:	000035a8 	cmpgeui	zero,zero,214
    2a24:	000035a8 	cmpgeui	zero,zero,214
    2a28:	000035a8 	cmpgeui	zero,zero,214
    2a2c:	000035a8 	cmpgeui	zero,zero,214
    2a30:	000035a8 	cmpgeui	zero,zero,214
    2a34:	000035a8 	cmpgeui	zero,zero,214
    2a38:	000035a8 	cmpgeui	zero,zero,214
    2a3c:	000035a8 	cmpgeui	zero,zero,214
    2a40:	00002d04 	movi	zero,180
    2a44:	00002dc0 	call	2dc <init_camera+0x5c>
    2a48:	000035a8 	cmpgeui	zero,zero,214
    2a4c:	00002dc0 	call	2dc <init_camera+0x5c>
    2a50:	000035a8 	cmpgeui	zero,zero,214
    2a54:	000035a8 	cmpgeui	zero,zero,214
    2a58:	000035a8 	cmpgeui	zero,zero,214
    2a5c:	000035a8 	cmpgeui	zero,zero,214
    2a60:	00002e60 	cmpeqi	zero,zero,185
    2a64:	000035a8 	cmpgeui	zero,zero,214
    2a68:	000035a8 	cmpgeui	zero,zero,214
    2a6c:	00002e6c 	andhi	zero,zero,185
    2a70:	000035a8 	cmpgeui	zero,zero,214
    2a74:	000035a8 	cmpgeui	zero,zero,214
    2a78:	000035a8 	cmpgeui	zero,zero,214
    2a7c:	000035a8 	cmpgeui	zero,zero,214
    2a80:	000035a8 	cmpgeui	zero,zero,214
    2a84:	000032e4 	muli	zero,zero,203
    2a88:	000035a8 	cmpgeui	zero,zero,214
    2a8c:	000035a8 	cmpgeui	zero,zero,214
    2a90:	00003344 	movi	zero,205
    2a94:	000035a8 	cmpgeui	zero,zero,214
    2a98:	000035a8 	cmpgeui	zero,zero,214
    2a9c:	000035a8 	cmpgeui	zero,zero,214
    2aa0:	000035a8 	cmpgeui	zero,zero,214
    2aa4:	000035a8 	cmpgeui	zero,zero,214
    2aa8:	000035a8 	cmpgeui	zero,zero,214
    2aac:	000035a8 	cmpgeui	zero,zero,214
    2ab0:	000035a8 	cmpgeui	zero,zero,214
    2ab4:	000035a8 	cmpgeui	zero,zero,214
    2ab8:	000035a8 	cmpgeui	zero,zero,214
    2abc:	00003554 	movui	zero,213
    2ac0:	000034f4 	movhi	zero,211
    2ac4:	00002dc0 	call	2dc <init_camera+0x5c>
    2ac8:	00002dc0 	call	2dc <init_camera+0x5c>
    2acc:	00002dc0 	call	2dc <init_camera+0x5c>
    2ad0:	00003504 	movi	zero,212
    2ad4:	000034f4 	movhi	zero,211
    2ad8:	000035a8 	cmpgeui	zero,zero,214
    2adc:	000035a8 	cmpgeui	zero,zero,214
    2ae0:	00003510 	cmplti	zero,zero,212
    2ae4:	000035a8 	cmpgeui	zero,zero,214
    2ae8:	00003520 	cmpeqi	zero,zero,212
    2aec:	000033f4 	movhi	zero,207
    2af0:	00002b30 	cmpltui	zero,zero,172
    2af4:	00003414 	movui	zero,208
    2af8:	000035a8 	cmpgeui	zero,zero,214
    2afc:	00003420 	cmpeqi	zero,zero,208
    2b00:	000035a8 	cmpgeui	zero,zero,214
    2b04:	0000347c 	xorhi	zero,zero,209
    2b08:	000035a8 	cmpgeui	zero,zero,214
    2b0c:	000035a8 	cmpgeui	zero,zero,214
    2b10:	0000348c 	andi	zero,zero,210
    2b14:	d9003117 	ldw	r4,196(sp)
    2b18:	d8802d15 	stw	r2,180(sp)
    2b1c:	0109c83a 	sub	r4,zero,r4
    2b20:	d9003115 	stw	r4,196(sp)
    2b24:	94800114 	ori	r18,r18,4
    2b28:	ac400007 	ldb	r17,0(r21)
    2b2c:	003f9706 	br	298c <__alt_data_end+0xff00298c>
    2b30:	00800c04 	movi	r2,48
    2b34:	d9002d17 	ldw	r4,180(sp)
    2b38:	d9402917 	ldw	r5,164(sp)
    2b3c:	d8802705 	stb	r2,156(sp)
    2b40:	00801e04 	movi	r2,120
    2b44:	d8802745 	stb	r2,157(sp)
    2b48:	d8002785 	stb	zero,158(sp)
    2b4c:	20c00104 	addi	r3,r4,4
    2b50:	24c00017 	ldw	r19,0(r4)
    2b54:	002d883a 	mov	r22,zero
    2b58:	90800094 	ori	r2,r18,2
    2b5c:	28029a16 	blt	r5,zero,35c8 <___vfprintf_internal_r+0xdc0>
    2b60:	00bfdfc4 	movi	r2,-129
    2b64:	90a4703a 	and	r18,r18,r2
    2b68:	d8c02d15 	stw	r3,180(sp)
    2b6c:	94800094 	ori	r18,r18,2
    2b70:	9802871e 	bne	r19,zero,3590 <___vfprintf_internal_r+0xd88>
    2b74:	00800074 	movhi	r2,1
    2b78:	10851304 	addi	r2,r2,5196
    2b7c:	d8803915 	stw	r2,228(sp)
    2b80:	04401e04 	movi	r17,120
    2b84:	d8802917 	ldw	r2,164(sp)
    2b88:	0039883a 	mov	fp,zero
    2b8c:	1001e926 	beq	r2,zero,3334 <___vfprintf_internal_r+0xb2c>
    2b90:	0027883a 	mov	r19,zero
    2b94:	002d883a 	mov	r22,zero
    2b98:	00020506 	br	33b0 <___vfprintf_internal_r+0xba8>
    2b9c:	d9002c17 	ldw	r4,176(sp)
    2ba0:	b80b883a 	mov	r5,r23
    2ba4:	0004ad80 	call	4ad8 <__swsetup_r>
    2ba8:	1005ac1e 	bne	r2,zero,425c <___vfprintf_internal_r+0x1a54>
    2bac:	b880030b 	ldhu	r2,12(r23)
    2bb0:	00c00284 	movi	r3,10
    2bb4:	1080068c 	andi	r2,r2,26
    2bb8:	10ff3c1e 	bne	r2,r3,28ac <__alt_data_end+0xff0028ac>
    2bbc:	b880038f 	ldh	r2,14(r23)
    2bc0:	103f3a16 	blt	r2,zero,28ac <__alt_data_end+0xff0028ac>
    2bc4:	d9c02d17 	ldw	r7,180(sp)
    2bc8:	d9002c17 	ldw	r4,176(sp)
    2bcc:	a80d883a 	mov	r6,r21
    2bd0:	b80b883a 	mov	r5,r23
    2bd4:	0004a1c0 	call	4a1c <__sbprintf>
    2bd8:	00001106 	br	2c20 <___vfprintf_internal_r+0x418>
    2bdc:	d9002c17 	ldw	r4,176(sp)
    2be0:	d9801e04 	addi	r6,sp,120
    2be4:	b80b883a 	mov	r5,r23
    2be8:	00095a40 	call	95a4 <__sprint_r>
    2bec:	1000081e 	bne	r2,zero,2c10 <___vfprintf_internal_r+0x408>
    2bf0:	da000404 	addi	r8,sp,16
    2bf4:	003f5306 	br	2944 <__alt_data_end+0xff002944>
    2bf8:	d8802017 	ldw	r2,128(sp)
    2bfc:	10000426 	beq	r2,zero,2c10 <___vfprintf_internal_r+0x408>
    2c00:	d9002c17 	ldw	r4,176(sp)
    2c04:	d9801e04 	addi	r6,sp,120
    2c08:	b80b883a 	mov	r5,r23
    2c0c:	00095a40 	call	95a4 <__sprint_r>
    2c10:	b880030b 	ldhu	r2,12(r23)
    2c14:	1080100c 	andi	r2,r2,64
    2c18:	1005901e 	bne	r2,zero,425c <___vfprintf_internal_r+0x1a54>
    2c1c:	d8802f17 	ldw	r2,188(sp)
    2c20:	dfc04717 	ldw	ra,284(sp)
    2c24:	df004617 	ldw	fp,280(sp)
    2c28:	ddc04517 	ldw	r23,276(sp)
    2c2c:	dd804417 	ldw	r22,272(sp)
    2c30:	dd404317 	ldw	r21,268(sp)
    2c34:	dd004217 	ldw	r20,264(sp)
    2c38:	dcc04117 	ldw	r19,260(sp)
    2c3c:	dc804017 	ldw	r18,256(sp)
    2c40:	dc403f17 	ldw	r17,252(sp)
    2c44:	dc003e17 	ldw	r16,248(sp)
    2c48:	dec04804 	addi	sp,sp,288
    2c4c:	f800283a 	ret
    2c50:	d9002c17 	ldw	r4,176(sp)
    2c54:	0006aac0 	call	6aac <__sinit>
    2c58:	003f0406 	br	286c <__alt_data_end+0xff00286c>
    2c5c:	d8802d17 	ldw	r2,180(sp)
    2c60:	d9002d17 	ldw	r4,180(sp)
    2c64:	10800017 	ldw	r2,0(r2)
    2c68:	d8803115 	stw	r2,196(sp)
    2c6c:	20800104 	addi	r2,r4,4
    2c70:	d9003117 	ldw	r4,196(sp)
    2c74:	203fa716 	blt	r4,zero,2b14 <__alt_data_end+0xff002b14>
    2c78:	d8802d15 	stw	r2,180(sp)
    2c7c:	ac400007 	ldb	r17,0(r21)
    2c80:	003f4206 	br	298c <__alt_data_end+0xff00298c>
    2c84:	ac400007 	ldb	r17,0(r21)
    2c88:	aac00044 	addi	r11,r21,1
    2c8c:	8a872826 	beq	r17,r10,4930 <___vfprintf_internal_r+0x2128>
    2c90:	88bff404 	addi	r2,r17,-48
    2c94:	0009883a 	mov	r4,zero
    2c98:	30867d36 	bltu	r6,r2,4690 <___vfprintf_internal_r+0x1e88>
    2c9c:	5c400007 	ldb	r17,0(r11)
    2ca0:	210002a4 	muli	r4,r4,10
    2ca4:	5d400044 	addi	r21,r11,1
    2ca8:	a817883a 	mov	r11,r21
    2cac:	2089883a 	add	r4,r4,r2
    2cb0:	88bff404 	addi	r2,r17,-48
    2cb4:	30bff92e 	bgeu	r6,r2,2c9c <__alt_data_end+0xff002c9c>
    2cb8:	2005c916 	blt	r4,zero,43e0 <___vfprintf_internal_r+0x1bd8>
    2cbc:	d9002915 	stw	r4,164(sp)
    2cc0:	003f3306 	br	2990 <__alt_data_end+0xff002990>
    2cc4:	94802014 	ori	r18,r18,128
    2cc8:	ac400007 	ldb	r17,0(r21)
    2ccc:	003f2f06 	br	298c <__alt_data_end+0xff00298c>
    2cd0:	a809883a 	mov	r4,r21
    2cd4:	d8003115 	stw	zero,196(sp)
    2cd8:	88bff404 	addi	r2,r17,-48
    2cdc:	0017883a 	mov	r11,zero
    2ce0:	24400007 	ldb	r17,0(r4)
    2ce4:	5ac002a4 	muli	r11,r11,10
    2ce8:	ad400044 	addi	r21,r21,1
    2cec:	a809883a 	mov	r4,r21
    2cf0:	12d7883a 	add	r11,r2,r11
    2cf4:	88bff404 	addi	r2,r17,-48
    2cf8:	30bff92e 	bgeu	r6,r2,2ce0 <__alt_data_end+0xff002ce0>
    2cfc:	dac03115 	stw	r11,196(sp)
    2d00:	003f2306 	br	2990 <__alt_data_end+0xff002990>
    2d04:	18c03fcc 	andi	r3,r3,255
    2d08:	18072b1e 	bne	r3,zero,49b8 <___vfprintf_internal_r+0x21b0>
    2d0c:	94800414 	ori	r18,r18,16
    2d10:	9080080c 	andi	r2,r18,32
    2d14:	10037b26 	beq	r2,zero,3b04 <___vfprintf_internal_r+0x12fc>
    2d18:	d9402d17 	ldw	r5,180(sp)
    2d1c:	28800117 	ldw	r2,4(r5)
    2d20:	2cc00017 	ldw	r19,0(r5)
    2d24:	29400204 	addi	r5,r5,8
    2d28:	d9402d15 	stw	r5,180(sp)
    2d2c:	102d883a 	mov	r22,r2
    2d30:	10044b16 	blt	r2,zero,3e60 <___vfprintf_internal_r+0x1658>
    2d34:	d9402917 	ldw	r5,164(sp)
    2d38:	df002783 	ldbu	fp,158(sp)
    2d3c:	2803bc16 	blt	r5,zero,3c30 <___vfprintf_internal_r+0x1428>
    2d40:	00ffdfc4 	movi	r3,-129
    2d44:	9d84b03a 	or	r2,r19,r22
    2d48:	90e4703a 	and	r18,r18,r3
    2d4c:	10017726 	beq	r2,zero,332c <___vfprintf_internal_r+0xb24>
    2d50:	b0038326 	beq	r22,zero,3b60 <___vfprintf_internal_r+0x1358>
    2d54:	dc402a15 	stw	r17,168(sp)
    2d58:	dc001e04 	addi	r16,sp,120
    2d5c:	b023883a 	mov	r17,r22
    2d60:	402d883a 	mov	r22,r8
    2d64:	9809883a 	mov	r4,r19
    2d68:	880b883a 	mov	r5,r17
    2d6c:	01800284 	movi	r6,10
    2d70:	000f883a 	mov	r7,zero
    2d74:	000b99c0 	call	b99c <__umoddi3>
    2d78:	10800c04 	addi	r2,r2,48
    2d7c:	843fffc4 	addi	r16,r16,-1
    2d80:	9809883a 	mov	r4,r19
    2d84:	880b883a 	mov	r5,r17
    2d88:	80800005 	stb	r2,0(r16)
    2d8c:	01800284 	movi	r6,10
    2d90:	000f883a 	mov	r7,zero
    2d94:	000b4240 	call	b424 <__udivdi3>
    2d98:	1027883a 	mov	r19,r2
    2d9c:	10c4b03a 	or	r2,r2,r3
    2da0:	1823883a 	mov	r17,r3
    2da4:	103fef1e 	bne	r2,zero,2d64 <__alt_data_end+0xff002d64>
    2da8:	d8c02817 	ldw	r3,160(sp)
    2dac:	dc402a17 	ldw	r17,168(sp)
    2db0:	b011883a 	mov	r8,r22
    2db4:	1c07c83a 	sub	r3,r3,r16
    2db8:	d8c02e15 	stw	r3,184(sp)
    2dbc:	00005906 	br	2f24 <___vfprintf_internal_r+0x71c>
    2dc0:	18c03fcc 	andi	r3,r3,255
    2dc4:	1806fa1e 	bne	r3,zero,49b0 <___vfprintf_internal_r+0x21a8>
    2dc8:	9080020c 	andi	r2,r18,8
    2dcc:	10048a26 	beq	r2,zero,3ff8 <___vfprintf_internal_r+0x17f0>
    2dd0:	d8c02d17 	ldw	r3,180(sp)
    2dd4:	d9002d17 	ldw	r4,180(sp)
    2dd8:	d9402d17 	ldw	r5,180(sp)
    2ddc:	18c00017 	ldw	r3,0(r3)
    2de0:	21000117 	ldw	r4,4(r4)
    2de4:	29400204 	addi	r5,r5,8
    2de8:	d8c03615 	stw	r3,216(sp)
    2dec:	d9003815 	stw	r4,224(sp)
    2df0:	d9402d15 	stw	r5,180(sp)
    2df4:	d9003617 	ldw	r4,216(sp)
    2df8:	d9403817 	ldw	r5,224(sp)
    2dfc:	da003d15 	stw	r8,244(sp)
    2e00:	04000044 	movi	r16,1
    2e04:	000921c0 	call	921c <__fpclassifyd>
    2e08:	da003d17 	ldw	r8,244(sp)
    2e0c:	14041f1e 	bne	r2,r16,3e8c <___vfprintf_internal_r+0x1684>
    2e10:	d9003617 	ldw	r4,216(sp)
    2e14:	d9403817 	ldw	r5,224(sp)
    2e18:	000d883a 	mov	r6,zero
    2e1c:	000f883a 	mov	r7,zero
    2e20:	000d1cc0 	call	d1cc <__ledf2>
    2e24:	da003d17 	ldw	r8,244(sp)
    2e28:	1005be16 	blt	r2,zero,4524 <___vfprintf_internal_r+0x1d1c>
    2e2c:	df002783 	ldbu	fp,158(sp)
    2e30:	008011c4 	movi	r2,71
    2e34:	1445330e 	bge	r2,r17,4304 <___vfprintf_internal_r+0x1afc>
    2e38:	04000074 	movhi	r16,1
    2e3c:	84050b04 	addi	r16,r16,5164
    2e40:	00c000c4 	movi	r3,3
    2e44:	00bfdfc4 	movi	r2,-129
    2e48:	d8c02a15 	stw	r3,168(sp)
    2e4c:	90a4703a 	and	r18,r18,r2
    2e50:	d8c02e15 	stw	r3,184(sp)
    2e54:	d8002915 	stw	zero,164(sp)
    2e58:	d8003215 	stw	zero,200(sp)
    2e5c:	00003706 	br	2f3c <___vfprintf_internal_r+0x734>
    2e60:	94800214 	ori	r18,r18,8
    2e64:	ac400007 	ldb	r17,0(r21)
    2e68:	003ec806 	br	298c <__alt_data_end+0xff00298c>
    2e6c:	18c03fcc 	andi	r3,r3,255
    2e70:	1806db1e 	bne	r3,zero,49e0 <___vfprintf_internal_r+0x21d8>
    2e74:	94800414 	ori	r18,r18,16
    2e78:	9080080c 	andi	r2,r18,32
    2e7c:	1002d826 	beq	r2,zero,39e0 <___vfprintf_internal_r+0x11d8>
    2e80:	d9402d17 	ldw	r5,180(sp)
    2e84:	d8c02917 	ldw	r3,164(sp)
    2e88:	d8002785 	stb	zero,158(sp)
    2e8c:	28800204 	addi	r2,r5,8
    2e90:	2cc00017 	ldw	r19,0(r5)
    2e94:	2d800117 	ldw	r22,4(r5)
    2e98:	18048f16 	blt	r3,zero,40d8 <___vfprintf_internal_r+0x18d0>
    2e9c:	013fdfc4 	movi	r4,-129
    2ea0:	9d86b03a 	or	r3,r19,r22
    2ea4:	d8802d15 	stw	r2,180(sp)
    2ea8:	9124703a 	and	r18,r18,r4
    2eac:	1802d91e 	bne	r3,zero,3a14 <___vfprintf_internal_r+0x120c>
    2eb0:	d8c02917 	ldw	r3,164(sp)
    2eb4:	0039883a 	mov	fp,zero
    2eb8:	1805c326 	beq	r3,zero,45c8 <___vfprintf_internal_r+0x1dc0>
    2ebc:	0027883a 	mov	r19,zero
    2ec0:	002d883a 	mov	r22,zero
    2ec4:	dc001e04 	addi	r16,sp,120
    2ec8:	9806d0fa 	srli	r3,r19,3
    2ecc:	b008977a 	slli	r4,r22,29
    2ed0:	b02cd0fa 	srli	r22,r22,3
    2ed4:	9cc001cc 	andi	r19,r19,7
    2ed8:	98800c04 	addi	r2,r19,48
    2edc:	843fffc4 	addi	r16,r16,-1
    2ee0:	20e6b03a 	or	r19,r4,r3
    2ee4:	80800005 	stb	r2,0(r16)
    2ee8:	9d86b03a 	or	r3,r19,r22
    2eec:	183ff61e 	bne	r3,zero,2ec8 <__alt_data_end+0xff002ec8>
    2ef0:	90c0004c 	andi	r3,r18,1
    2ef4:	18013b26 	beq	r3,zero,33e4 <___vfprintf_internal_r+0xbdc>
    2ef8:	10803fcc 	andi	r2,r2,255
    2efc:	1080201c 	xori	r2,r2,128
    2f00:	10bfe004 	addi	r2,r2,-128
    2f04:	00c00c04 	movi	r3,48
    2f08:	10c13626 	beq	r2,r3,33e4 <___vfprintf_internal_r+0xbdc>
    2f0c:	80ffffc5 	stb	r3,-1(r16)
    2f10:	d8c02817 	ldw	r3,160(sp)
    2f14:	80bfffc4 	addi	r2,r16,-1
    2f18:	1021883a 	mov	r16,r2
    2f1c:	1887c83a 	sub	r3,r3,r2
    2f20:	d8c02e15 	stw	r3,184(sp)
    2f24:	d8802e17 	ldw	r2,184(sp)
    2f28:	d9002917 	ldw	r4,164(sp)
    2f2c:	1100010e 	bge	r2,r4,2f34 <___vfprintf_internal_r+0x72c>
    2f30:	2005883a 	mov	r2,r4
    2f34:	d8802a15 	stw	r2,168(sp)
    2f38:	d8003215 	stw	zero,200(sp)
    2f3c:	e7003fcc 	andi	fp,fp,255
    2f40:	e700201c 	xori	fp,fp,128
    2f44:	e73fe004 	addi	fp,fp,-128
    2f48:	e0000326 	beq	fp,zero,2f58 <___vfprintf_internal_r+0x750>
    2f4c:	d8c02a17 	ldw	r3,168(sp)
    2f50:	18c00044 	addi	r3,r3,1
    2f54:	d8c02a15 	stw	r3,168(sp)
    2f58:	90c0008c 	andi	r3,r18,2
    2f5c:	d8c02b15 	stw	r3,172(sp)
    2f60:	18000326 	beq	r3,zero,2f70 <___vfprintf_internal_r+0x768>
    2f64:	d8c02a17 	ldw	r3,168(sp)
    2f68:	18c00084 	addi	r3,r3,2
    2f6c:	d8c02a15 	stw	r3,168(sp)
    2f70:	90c0210c 	andi	r3,r18,132
    2f74:	d8c03015 	stw	r3,192(sp)
    2f78:	1801a31e 	bne	r3,zero,3608 <___vfprintf_internal_r+0xe00>
    2f7c:	d9003117 	ldw	r4,196(sp)
    2f80:	d8c02a17 	ldw	r3,168(sp)
    2f84:	20e7c83a 	sub	r19,r4,r3
    2f88:	04c19f0e 	bge	zero,r19,3608 <___vfprintf_internal_r+0xe00>
    2f8c:	02400404 	movi	r9,16
    2f90:	d8c02017 	ldw	r3,128(sp)
    2f94:	d8801f17 	ldw	r2,124(sp)
    2f98:	4cc50d0e 	bge	r9,r19,43d0 <___vfprintf_internal_r+0x1bc8>
    2f9c:	01400074 	movhi	r5,1
    2fa0:	29451e84 	addi	r5,r5,5242
    2fa4:	dc403b15 	stw	r17,236(sp)
    2fa8:	d9403515 	stw	r5,212(sp)
    2fac:	9823883a 	mov	r17,r19
    2fb0:	482d883a 	mov	r22,r9
    2fb4:	9027883a 	mov	r19,r18
    2fb8:	070001c4 	movi	fp,7
    2fbc:	8025883a 	mov	r18,r16
    2fc0:	dc002c17 	ldw	r16,176(sp)
    2fc4:	00000306 	br	2fd4 <___vfprintf_internal_r+0x7cc>
    2fc8:	8c7ffc04 	addi	r17,r17,-16
    2fcc:	42000204 	addi	r8,r8,8
    2fd0:	b440130e 	bge	r22,r17,3020 <___vfprintf_internal_r+0x818>
    2fd4:	01000074 	movhi	r4,1
    2fd8:	18c00404 	addi	r3,r3,16
    2fdc:	10800044 	addi	r2,r2,1
    2fe0:	21051e84 	addi	r4,r4,5242
    2fe4:	41000015 	stw	r4,0(r8)
    2fe8:	45800115 	stw	r22,4(r8)
    2fec:	d8c02015 	stw	r3,128(sp)
    2ff0:	d8801f15 	stw	r2,124(sp)
    2ff4:	e0bff40e 	bge	fp,r2,2fc8 <__alt_data_end+0xff002fc8>
    2ff8:	d9801e04 	addi	r6,sp,120
    2ffc:	b80b883a 	mov	r5,r23
    3000:	8009883a 	mov	r4,r16
    3004:	00095a40 	call	95a4 <__sprint_r>
    3008:	103f011e 	bne	r2,zero,2c10 <__alt_data_end+0xff002c10>
    300c:	8c7ffc04 	addi	r17,r17,-16
    3010:	d8c02017 	ldw	r3,128(sp)
    3014:	d8801f17 	ldw	r2,124(sp)
    3018:	da000404 	addi	r8,sp,16
    301c:	b47fed16 	blt	r22,r17,2fd4 <__alt_data_end+0xff002fd4>
    3020:	9021883a 	mov	r16,r18
    3024:	9825883a 	mov	r18,r19
    3028:	8827883a 	mov	r19,r17
    302c:	dc403b17 	ldw	r17,236(sp)
    3030:	d9403517 	ldw	r5,212(sp)
    3034:	98c7883a 	add	r3,r19,r3
    3038:	10800044 	addi	r2,r2,1
    303c:	41400015 	stw	r5,0(r8)
    3040:	44c00115 	stw	r19,4(r8)
    3044:	d8c02015 	stw	r3,128(sp)
    3048:	d8801f15 	stw	r2,124(sp)
    304c:	010001c4 	movi	r4,7
    3050:	2082a316 	blt	r4,r2,3ae0 <___vfprintf_internal_r+0x12d8>
    3054:	df002787 	ldb	fp,158(sp)
    3058:	42000204 	addi	r8,r8,8
    305c:	e0000c26 	beq	fp,zero,3090 <___vfprintf_internal_r+0x888>
    3060:	d8801f17 	ldw	r2,124(sp)
    3064:	d9002784 	addi	r4,sp,158
    3068:	18c00044 	addi	r3,r3,1
    306c:	10800044 	addi	r2,r2,1
    3070:	41000015 	stw	r4,0(r8)
    3074:	01000044 	movi	r4,1
    3078:	41000115 	stw	r4,4(r8)
    307c:	d8c02015 	stw	r3,128(sp)
    3080:	d8801f15 	stw	r2,124(sp)
    3084:	010001c4 	movi	r4,7
    3088:	20823c16 	blt	r4,r2,397c <___vfprintf_internal_r+0x1174>
    308c:	42000204 	addi	r8,r8,8
    3090:	d8802b17 	ldw	r2,172(sp)
    3094:	10000c26 	beq	r2,zero,30c8 <___vfprintf_internal_r+0x8c0>
    3098:	d8801f17 	ldw	r2,124(sp)
    309c:	d9002704 	addi	r4,sp,156
    30a0:	18c00084 	addi	r3,r3,2
    30a4:	10800044 	addi	r2,r2,1
    30a8:	41000015 	stw	r4,0(r8)
    30ac:	01000084 	movi	r4,2
    30b0:	41000115 	stw	r4,4(r8)
    30b4:	d8c02015 	stw	r3,128(sp)
    30b8:	d8801f15 	stw	r2,124(sp)
    30bc:	010001c4 	movi	r4,7
    30c0:	20823616 	blt	r4,r2,399c <___vfprintf_internal_r+0x1194>
    30c4:	42000204 	addi	r8,r8,8
    30c8:	d9003017 	ldw	r4,192(sp)
    30cc:	00802004 	movi	r2,128
    30d0:	20819926 	beq	r4,r2,3738 <___vfprintf_internal_r+0xf30>
    30d4:	d9402917 	ldw	r5,164(sp)
    30d8:	d8802e17 	ldw	r2,184(sp)
    30dc:	28adc83a 	sub	r22,r5,r2
    30e0:	0580310e 	bge	zero,r22,31a8 <___vfprintf_internal_r+0x9a0>
    30e4:	07000404 	movi	fp,16
    30e8:	d8801f17 	ldw	r2,124(sp)
    30ec:	e584140e 	bge	fp,r22,4140 <___vfprintf_internal_r+0x1938>
    30f0:	01400074 	movhi	r5,1
    30f4:	29451a84 	addi	r5,r5,5226
    30f8:	dc402915 	stw	r17,164(sp)
    30fc:	d9402b15 	stw	r5,172(sp)
    3100:	b023883a 	mov	r17,r22
    3104:	04c001c4 	movi	r19,7
    3108:	a82d883a 	mov	r22,r21
    310c:	902b883a 	mov	r21,r18
    3110:	8025883a 	mov	r18,r16
    3114:	dc002c17 	ldw	r16,176(sp)
    3118:	00000306 	br	3128 <___vfprintf_internal_r+0x920>
    311c:	8c7ffc04 	addi	r17,r17,-16
    3120:	42000204 	addi	r8,r8,8
    3124:	e440110e 	bge	fp,r17,316c <___vfprintf_internal_r+0x964>
    3128:	18c00404 	addi	r3,r3,16
    312c:	10800044 	addi	r2,r2,1
    3130:	45000015 	stw	r20,0(r8)
    3134:	47000115 	stw	fp,4(r8)
    3138:	d8c02015 	stw	r3,128(sp)
    313c:	d8801f15 	stw	r2,124(sp)
    3140:	98bff60e 	bge	r19,r2,311c <__alt_data_end+0xff00311c>
    3144:	d9801e04 	addi	r6,sp,120
    3148:	b80b883a 	mov	r5,r23
    314c:	8009883a 	mov	r4,r16
    3150:	00095a40 	call	95a4 <__sprint_r>
    3154:	103eae1e 	bne	r2,zero,2c10 <__alt_data_end+0xff002c10>
    3158:	8c7ffc04 	addi	r17,r17,-16
    315c:	d8c02017 	ldw	r3,128(sp)
    3160:	d8801f17 	ldw	r2,124(sp)
    3164:	da000404 	addi	r8,sp,16
    3168:	e47fef16 	blt	fp,r17,3128 <__alt_data_end+0xff003128>
    316c:	9021883a 	mov	r16,r18
    3170:	a825883a 	mov	r18,r21
    3174:	b02b883a 	mov	r21,r22
    3178:	882d883a 	mov	r22,r17
    317c:	dc402917 	ldw	r17,164(sp)
    3180:	d9002b17 	ldw	r4,172(sp)
    3184:	1d87883a 	add	r3,r3,r22
    3188:	10800044 	addi	r2,r2,1
    318c:	41000015 	stw	r4,0(r8)
    3190:	45800115 	stw	r22,4(r8)
    3194:	d8c02015 	stw	r3,128(sp)
    3198:	d8801f15 	stw	r2,124(sp)
    319c:	010001c4 	movi	r4,7
    31a0:	2081ee16 	blt	r4,r2,395c <___vfprintf_internal_r+0x1154>
    31a4:	42000204 	addi	r8,r8,8
    31a8:	9080400c 	andi	r2,r18,256
    31ac:	1001181e 	bne	r2,zero,3610 <___vfprintf_internal_r+0xe08>
    31b0:	d9402e17 	ldw	r5,184(sp)
    31b4:	d8801f17 	ldw	r2,124(sp)
    31b8:	44000015 	stw	r16,0(r8)
    31bc:	1947883a 	add	r3,r3,r5
    31c0:	10800044 	addi	r2,r2,1
    31c4:	41400115 	stw	r5,4(r8)
    31c8:	d8c02015 	stw	r3,128(sp)
    31cc:	d8801f15 	stw	r2,124(sp)
    31d0:	010001c4 	movi	r4,7
    31d4:	2081d316 	blt	r4,r2,3924 <___vfprintf_internal_r+0x111c>
    31d8:	42000204 	addi	r8,r8,8
    31dc:	9480010c 	andi	r18,r18,4
    31e0:	90003226 	beq	r18,zero,32ac <___vfprintf_internal_r+0xaa4>
    31e4:	d9403117 	ldw	r5,196(sp)
    31e8:	d8802a17 	ldw	r2,168(sp)
    31ec:	28a1c83a 	sub	r16,r5,r2
    31f0:	04002e0e 	bge	zero,r16,32ac <___vfprintf_internal_r+0xaa4>
    31f4:	04400404 	movi	r17,16
    31f8:	d8801f17 	ldw	r2,124(sp)
    31fc:	8c04a20e 	bge	r17,r16,4488 <___vfprintf_internal_r+0x1c80>
    3200:	01400074 	movhi	r5,1
    3204:	29451e84 	addi	r5,r5,5242
    3208:	d9403515 	stw	r5,212(sp)
    320c:	048001c4 	movi	r18,7
    3210:	dcc02c17 	ldw	r19,176(sp)
    3214:	00000306 	br	3224 <___vfprintf_internal_r+0xa1c>
    3218:	843ffc04 	addi	r16,r16,-16
    321c:	42000204 	addi	r8,r8,8
    3220:	8c00130e 	bge	r17,r16,3270 <___vfprintf_internal_r+0xa68>
    3224:	01000074 	movhi	r4,1
    3228:	18c00404 	addi	r3,r3,16
    322c:	10800044 	addi	r2,r2,1
    3230:	21051e84 	addi	r4,r4,5242
    3234:	41000015 	stw	r4,0(r8)
    3238:	44400115 	stw	r17,4(r8)
    323c:	d8c02015 	stw	r3,128(sp)
    3240:	d8801f15 	stw	r2,124(sp)
    3244:	90bff40e 	bge	r18,r2,3218 <__alt_data_end+0xff003218>
    3248:	d9801e04 	addi	r6,sp,120
    324c:	b80b883a 	mov	r5,r23
    3250:	9809883a 	mov	r4,r19
    3254:	00095a40 	call	95a4 <__sprint_r>
    3258:	103e6d1e 	bne	r2,zero,2c10 <__alt_data_end+0xff002c10>
    325c:	843ffc04 	addi	r16,r16,-16
    3260:	d8c02017 	ldw	r3,128(sp)
    3264:	d8801f17 	ldw	r2,124(sp)
    3268:	da000404 	addi	r8,sp,16
    326c:	8c3fed16 	blt	r17,r16,3224 <__alt_data_end+0xff003224>
    3270:	d9403517 	ldw	r5,212(sp)
    3274:	1c07883a 	add	r3,r3,r16
    3278:	10800044 	addi	r2,r2,1
    327c:	41400015 	stw	r5,0(r8)
    3280:	44000115 	stw	r16,4(r8)
    3284:	d8c02015 	stw	r3,128(sp)
    3288:	d8801f15 	stw	r2,124(sp)
    328c:	010001c4 	movi	r4,7
    3290:	2080060e 	bge	r4,r2,32ac <___vfprintf_internal_r+0xaa4>
    3294:	d9002c17 	ldw	r4,176(sp)
    3298:	d9801e04 	addi	r6,sp,120
    329c:	b80b883a 	mov	r5,r23
    32a0:	00095a40 	call	95a4 <__sprint_r>
    32a4:	103e5a1e 	bne	r2,zero,2c10 <__alt_data_end+0xff002c10>
    32a8:	d8c02017 	ldw	r3,128(sp)
    32ac:	d8803117 	ldw	r2,196(sp)
    32b0:	d9002a17 	ldw	r4,168(sp)
    32b4:	1100010e 	bge	r2,r4,32bc <___vfprintf_internal_r+0xab4>
    32b8:	2005883a 	mov	r2,r4
    32bc:	d9402f17 	ldw	r5,188(sp)
    32c0:	288b883a 	add	r5,r5,r2
    32c4:	d9402f15 	stw	r5,188(sp)
    32c8:	18019e1e 	bne	r3,zero,3944 <___vfprintf_internal_r+0x113c>
    32cc:	a8800007 	ldb	r2,0(r21)
    32d0:	d8001f15 	stw	zero,124(sp)
    32d4:	da000404 	addi	r8,sp,16
    32d8:	103d851e 	bne	r2,zero,28f0 <__alt_data_end+0xff0028f0>
    32dc:	a821883a 	mov	r16,r21
    32e0:	003d9b06 	br	2950 <__alt_data_end+0xff002950>
    32e4:	18c03fcc 	andi	r3,r3,255
    32e8:	1805c11e 	bne	r3,zero,49f0 <___vfprintf_internal_r+0x21e8>
    32ec:	94800414 	ori	r18,r18,16
    32f0:	9080080c 	andi	r2,r18,32
    32f4:	10020c26 	beq	r2,zero,3b28 <___vfprintf_internal_r+0x1320>
    32f8:	d8802d17 	ldw	r2,180(sp)
    32fc:	d9002917 	ldw	r4,164(sp)
    3300:	d8002785 	stb	zero,158(sp)
    3304:	10c00204 	addi	r3,r2,8
    3308:	14c00017 	ldw	r19,0(r2)
    330c:	15800117 	ldw	r22,4(r2)
    3310:	20040f16 	blt	r4,zero,4350 <___vfprintf_internal_r+0x1b48>
    3314:	013fdfc4 	movi	r4,-129
    3318:	9d84b03a 	or	r2,r19,r22
    331c:	d8c02d15 	stw	r3,180(sp)
    3320:	9124703a 	and	r18,r18,r4
    3324:	0039883a 	mov	fp,zero
    3328:	103e891e 	bne	r2,zero,2d50 <__alt_data_end+0xff002d50>
    332c:	d9002917 	ldw	r4,164(sp)
    3330:	2002c11e 	bne	r4,zero,3e38 <___vfprintf_internal_r+0x1630>
    3334:	d8002915 	stw	zero,164(sp)
    3338:	d8002e15 	stw	zero,184(sp)
    333c:	dc001e04 	addi	r16,sp,120
    3340:	003ef806 	br	2f24 <__alt_data_end+0xff002f24>
    3344:	18c03fcc 	andi	r3,r3,255
    3348:	18059d1e 	bne	r3,zero,49c0 <___vfprintf_internal_r+0x21b8>
    334c:	01400074 	movhi	r5,1
    3350:	29450e04 	addi	r5,r5,5176
    3354:	d9403915 	stw	r5,228(sp)
    3358:	9080080c 	andi	r2,r18,32
    335c:	10005226 	beq	r2,zero,34a8 <___vfprintf_internal_r+0xca0>
    3360:	d8802d17 	ldw	r2,180(sp)
    3364:	14c00017 	ldw	r19,0(r2)
    3368:	15800117 	ldw	r22,4(r2)
    336c:	10800204 	addi	r2,r2,8
    3370:	d8802d15 	stw	r2,180(sp)
    3374:	9080004c 	andi	r2,r18,1
    3378:	10019026 	beq	r2,zero,39bc <___vfprintf_internal_r+0x11b4>
    337c:	9d84b03a 	or	r2,r19,r22
    3380:	10036926 	beq	r2,zero,4128 <___vfprintf_internal_r+0x1920>
    3384:	d8c02917 	ldw	r3,164(sp)
    3388:	00800c04 	movi	r2,48
    338c:	d8802705 	stb	r2,156(sp)
    3390:	dc402745 	stb	r17,157(sp)
    3394:	d8002785 	stb	zero,158(sp)
    3398:	90800094 	ori	r2,r18,2
    339c:	18045d16 	blt	r3,zero,4514 <___vfprintf_internal_r+0x1d0c>
    33a0:	00bfdfc4 	movi	r2,-129
    33a4:	90a4703a 	and	r18,r18,r2
    33a8:	94800094 	ori	r18,r18,2
    33ac:	0039883a 	mov	fp,zero
    33b0:	d9003917 	ldw	r4,228(sp)
    33b4:	dc001e04 	addi	r16,sp,120
    33b8:	988003cc 	andi	r2,r19,15
    33bc:	b006973a 	slli	r3,r22,28
    33c0:	2085883a 	add	r2,r4,r2
    33c4:	9826d13a 	srli	r19,r19,4
    33c8:	10800003 	ldbu	r2,0(r2)
    33cc:	b02cd13a 	srli	r22,r22,4
    33d0:	843fffc4 	addi	r16,r16,-1
    33d4:	1ce6b03a 	or	r19,r3,r19
    33d8:	80800005 	stb	r2,0(r16)
    33dc:	9d84b03a 	or	r2,r19,r22
    33e0:	103ff51e 	bne	r2,zero,33b8 <__alt_data_end+0xff0033b8>
    33e4:	d8c02817 	ldw	r3,160(sp)
    33e8:	1c07c83a 	sub	r3,r3,r16
    33ec:	d8c02e15 	stw	r3,184(sp)
    33f0:	003ecc06 	br	2f24 <__alt_data_end+0xff002f24>
    33f4:	18c03fcc 	andi	r3,r3,255
    33f8:	183e9f26 	beq	r3,zero,2e78 <__alt_data_end+0xff002e78>
    33fc:	d9c02785 	stb	r7,158(sp)
    3400:	003e9d06 	br	2e78 <__alt_data_end+0xff002e78>
    3404:	00c00044 	movi	r3,1
    3408:	01c00ac4 	movi	r7,43
    340c:	ac400007 	ldb	r17,0(r21)
    3410:	003d5e06 	br	298c <__alt_data_end+0xff00298c>
    3414:	94800814 	ori	r18,r18,32
    3418:	ac400007 	ldb	r17,0(r21)
    341c:	003d5b06 	br	298c <__alt_data_end+0xff00298c>
    3420:	d8c02d17 	ldw	r3,180(sp)
    3424:	d8002785 	stb	zero,158(sp)
    3428:	1c000017 	ldw	r16,0(r3)
    342c:	1cc00104 	addi	r19,r3,4
    3430:	80041926 	beq	r16,zero,4498 <___vfprintf_internal_r+0x1c90>
    3434:	d9002917 	ldw	r4,164(sp)
    3438:	2003d016 	blt	r4,zero,437c <___vfprintf_internal_r+0x1b74>
    343c:	200d883a 	mov	r6,r4
    3440:	000b883a 	mov	r5,zero
    3444:	8009883a 	mov	r4,r16
    3448:	da003d15 	stw	r8,244(sp)
    344c:	000780c0 	call	780c <memchr>
    3450:	da003d17 	ldw	r8,244(sp)
    3454:	10045426 	beq	r2,zero,45a8 <___vfprintf_internal_r+0x1da0>
    3458:	1405c83a 	sub	r2,r2,r16
    345c:	d8802e15 	stw	r2,184(sp)
    3460:	1003cc16 	blt	r2,zero,4394 <___vfprintf_internal_r+0x1b8c>
    3464:	df002783 	ldbu	fp,158(sp)
    3468:	d8802a15 	stw	r2,168(sp)
    346c:	dcc02d15 	stw	r19,180(sp)
    3470:	d8002915 	stw	zero,164(sp)
    3474:	d8003215 	stw	zero,200(sp)
    3478:	003eb006 	br	2f3c <__alt_data_end+0xff002f3c>
    347c:	18c03fcc 	andi	r3,r3,255
    3480:	183f9b26 	beq	r3,zero,32f0 <__alt_data_end+0xff0032f0>
    3484:	d9c02785 	stb	r7,158(sp)
    3488:	003f9906 	br	32f0 <__alt_data_end+0xff0032f0>
    348c:	18c03fcc 	andi	r3,r3,255
    3490:	1805551e 	bne	r3,zero,49e8 <___vfprintf_internal_r+0x21e0>
    3494:	01400074 	movhi	r5,1
    3498:	29451304 	addi	r5,r5,5196
    349c:	d9403915 	stw	r5,228(sp)
    34a0:	9080080c 	andi	r2,r18,32
    34a4:	103fae1e 	bne	r2,zero,3360 <__alt_data_end+0xff003360>
    34a8:	9080040c 	andi	r2,r18,16
    34ac:	1002de26 	beq	r2,zero,4028 <___vfprintf_internal_r+0x1820>
    34b0:	d8c02d17 	ldw	r3,180(sp)
    34b4:	002d883a 	mov	r22,zero
    34b8:	1cc00017 	ldw	r19,0(r3)
    34bc:	18c00104 	addi	r3,r3,4
    34c0:	d8c02d15 	stw	r3,180(sp)
    34c4:	003fab06 	br	3374 <__alt_data_end+0xff003374>
    34c8:	38803fcc 	andi	r2,r7,255
    34cc:	1080201c 	xori	r2,r2,128
    34d0:	10bfe004 	addi	r2,r2,-128
    34d4:	1002d21e 	bne	r2,zero,4020 <___vfprintf_internal_r+0x1818>
    34d8:	00c00044 	movi	r3,1
    34dc:	01c00804 	movi	r7,32
    34e0:	ac400007 	ldb	r17,0(r21)
    34e4:	003d2906 	br	298c <__alt_data_end+0xff00298c>
    34e8:	94800054 	ori	r18,r18,1
    34ec:	ac400007 	ldb	r17,0(r21)
    34f0:	003d2606 	br	298c <__alt_data_end+0xff00298c>
    34f4:	18c03fcc 	andi	r3,r3,255
    34f8:	183e0526 	beq	r3,zero,2d10 <__alt_data_end+0xff002d10>
    34fc:	d9c02785 	stb	r7,158(sp)
    3500:	003e0306 	br	2d10 <__alt_data_end+0xff002d10>
    3504:	94801014 	ori	r18,r18,64
    3508:	ac400007 	ldb	r17,0(r21)
    350c:	003d1f06 	br	298c <__alt_data_end+0xff00298c>
    3510:	ac400007 	ldb	r17,0(r21)
    3514:	8a438726 	beq	r17,r9,4334 <___vfprintf_internal_r+0x1b2c>
    3518:	94800414 	ori	r18,r18,16
    351c:	003d1b06 	br	298c <__alt_data_end+0xff00298c>
    3520:	18c03fcc 	andi	r3,r3,255
    3524:	1805341e 	bne	r3,zero,49f8 <___vfprintf_internal_r+0x21f0>
    3528:	9080080c 	andi	r2,r18,32
    352c:	1002cd26 	beq	r2,zero,4064 <___vfprintf_internal_r+0x185c>
    3530:	d9402d17 	ldw	r5,180(sp)
    3534:	d9002f17 	ldw	r4,188(sp)
    3538:	28800017 	ldw	r2,0(r5)
    353c:	2007d7fa 	srai	r3,r4,31
    3540:	29400104 	addi	r5,r5,4
    3544:	d9402d15 	stw	r5,180(sp)
    3548:	11000015 	stw	r4,0(r2)
    354c:	10c00115 	stw	r3,4(r2)
    3550:	003ce506 	br	28e8 <__alt_data_end+0xff0028e8>
    3554:	d8c02d17 	ldw	r3,180(sp)
    3558:	d9002d17 	ldw	r4,180(sp)
    355c:	d8002785 	stb	zero,158(sp)
    3560:	18800017 	ldw	r2,0(r3)
    3564:	21000104 	addi	r4,r4,4
    3568:	00c00044 	movi	r3,1
    356c:	d8c02a15 	stw	r3,168(sp)
    3570:	d8801405 	stb	r2,80(sp)
    3574:	d9002d15 	stw	r4,180(sp)
    3578:	d8c02e15 	stw	r3,184(sp)
    357c:	d8002915 	stw	zero,164(sp)
    3580:	d8003215 	stw	zero,200(sp)
    3584:	dc001404 	addi	r16,sp,80
    3588:	0039883a 	mov	fp,zero
    358c:	003e7206 	br	2f58 <__alt_data_end+0xff002f58>
    3590:	01000074 	movhi	r4,1
    3594:	21051304 	addi	r4,r4,5196
    3598:	0039883a 	mov	fp,zero
    359c:	d9003915 	stw	r4,228(sp)
    35a0:	04401e04 	movi	r17,120
    35a4:	003f8206 	br	33b0 <__alt_data_end+0xff0033b0>
    35a8:	18c03fcc 	andi	r3,r3,255
    35ac:	1805061e 	bne	r3,zero,49c8 <___vfprintf_internal_r+0x21c0>
    35b0:	883d9126 	beq	r17,zero,2bf8 <__alt_data_end+0xff002bf8>
    35b4:	00c00044 	movi	r3,1
    35b8:	d8c02a15 	stw	r3,168(sp)
    35bc:	dc401405 	stb	r17,80(sp)
    35c0:	d8002785 	stb	zero,158(sp)
    35c4:	003fec06 	br	3578 <__alt_data_end+0xff003578>
    35c8:	01400074 	movhi	r5,1
    35cc:	29451304 	addi	r5,r5,5196
    35d0:	d9403915 	stw	r5,228(sp)
    35d4:	d8c02d15 	stw	r3,180(sp)
    35d8:	1025883a 	mov	r18,r2
    35dc:	04401e04 	movi	r17,120
    35e0:	9d84b03a 	or	r2,r19,r22
    35e4:	1000fc1e 	bne	r2,zero,39d8 <___vfprintf_internal_r+0x11d0>
    35e8:	0039883a 	mov	fp,zero
    35ec:	00800084 	movi	r2,2
    35f0:	10803fcc 	andi	r2,r2,255
    35f4:	00c00044 	movi	r3,1
    35f8:	10c20f26 	beq	r2,r3,3e38 <___vfprintf_internal_r+0x1630>
    35fc:	00c00084 	movi	r3,2
    3600:	10fd6326 	beq	r2,r3,2b90 <__alt_data_end+0xff002b90>
    3604:	003e2d06 	br	2ebc <__alt_data_end+0xff002ebc>
    3608:	d8c02017 	ldw	r3,128(sp)
    360c:	003e9306 	br	305c <__alt_data_end+0xff00305c>
    3610:	00801944 	movi	r2,101
    3614:	14407e0e 	bge	r2,r17,3810 <___vfprintf_internal_r+0x1008>
    3618:	d9003617 	ldw	r4,216(sp)
    361c:	d9403817 	ldw	r5,224(sp)
    3620:	000d883a 	mov	r6,zero
    3624:	000f883a 	mov	r7,zero
    3628:	d8c03c15 	stw	r3,240(sp)
    362c:	da003d15 	stw	r8,244(sp)
    3630:	000d0680 	call	d068 <__eqdf2>
    3634:	d8c03c17 	ldw	r3,240(sp)
    3638:	da003d17 	ldw	r8,244(sp)
    363c:	1000f71e 	bne	r2,zero,3a1c <___vfprintf_internal_r+0x1214>
    3640:	d8801f17 	ldw	r2,124(sp)
    3644:	01000074 	movhi	r4,1
    3648:	21051a04 	addi	r4,r4,5224
    364c:	18c00044 	addi	r3,r3,1
    3650:	10800044 	addi	r2,r2,1
    3654:	41000015 	stw	r4,0(r8)
    3658:	01000044 	movi	r4,1
    365c:	41000115 	stw	r4,4(r8)
    3660:	d8c02015 	stw	r3,128(sp)
    3664:	d8801f15 	stw	r2,124(sp)
    3668:	010001c4 	movi	r4,7
    366c:	2082b816 	blt	r4,r2,4150 <___vfprintf_internal_r+0x1948>
    3670:	42000204 	addi	r8,r8,8
    3674:	d8802617 	ldw	r2,152(sp)
    3678:	d9403317 	ldw	r5,204(sp)
    367c:	11400216 	blt	r2,r5,3688 <___vfprintf_internal_r+0xe80>
    3680:	9080004c 	andi	r2,r18,1
    3684:	103ed526 	beq	r2,zero,31dc <__alt_data_end+0xff0031dc>
    3688:	d8803717 	ldw	r2,220(sp)
    368c:	d9003417 	ldw	r4,208(sp)
    3690:	d9403717 	ldw	r5,220(sp)
    3694:	1887883a 	add	r3,r3,r2
    3698:	d8801f17 	ldw	r2,124(sp)
    369c:	41000015 	stw	r4,0(r8)
    36a0:	41400115 	stw	r5,4(r8)
    36a4:	10800044 	addi	r2,r2,1
    36a8:	d8c02015 	stw	r3,128(sp)
    36ac:	d8801f15 	stw	r2,124(sp)
    36b0:	010001c4 	movi	r4,7
    36b4:	20832916 	blt	r4,r2,435c <___vfprintf_internal_r+0x1b54>
    36b8:	42000204 	addi	r8,r8,8
    36bc:	d8803317 	ldw	r2,204(sp)
    36c0:	143fffc4 	addi	r16,r2,-1
    36c4:	043ec50e 	bge	zero,r16,31dc <__alt_data_end+0xff0031dc>
    36c8:	04400404 	movi	r17,16
    36cc:	d8801f17 	ldw	r2,124(sp)
    36d0:	8c00880e 	bge	r17,r16,38f4 <___vfprintf_internal_r+0x10ec>
    36d4:	01400074 	movhi	r5,1
    36d8:	29451a84 	addi	r5,r5,5226
    36dc:	d9402b15 	stw	r5,172(sp)
    36e0:	058001c4 	movi	r22,7
    36e4:	dcc02c17 	ldw	r19,176(sp)
    36e8:	00000306 	br	36f8 <___vfprintf_internal_r+0xef0>
    36ec:	42000204 	addi	r8,r8,8
    36f0:	843ffc04 	addi	r16,r16,-16
    36f4:	8c00820e 	bge	r17,r16,3900 <___vfprintf_internal_r+0x10f8>
    36f8:	18c00404 	addi	r3,r3,16
    36fc:	10800044 	addi	r2,r2,1
    3700:	45000015 	stw	r20,0(r8)
    3704:	44400115 	stw	r17,4(r8)
    3708:	d8c02015 	stw	r3,128(sp)
    370c:	d8801f15 	stw	r2,124(sp)
    3710:	b0bff60e 	bge	r22,r2,36ec <__alt_data_end+0xff0036ec>
    3714:	d9801e04 	addi	r6,sp,120
    3718:	b80b883a 	mov	r5,r23
    371c:	9809883a 	mov	r4,r19
    3720:	00095a40 	call	95a4 <__sprint_r>
    3724:	103d3a1e 	bne	r2,zero,2c10 <__alt_data_end+0xff002c10>
    3728:	d8c02017 	ldw	r3,128(sp)
    372c:	d8801f17 	ldw	r2,124(sp)
    3730:	da000404 	addi	r8,sp,16
    3734:	003fee06 	br	36f0 <__alt_data_end+0xff0036f0>
    3738:	d9403117 	ldw	r5,196(sp)
    373c:	d8802a17 	ldw	r2,168(sp)
    3740:	28adc83a 	sub	r22,r5,r2
    3744:	05be630e 	bge	zero,r22,30d4 <__alt_data_end+0xff0030d4>
    3748:	07000404 	movi	fp,16
    374c:	d8801f17 	ldw	r2,124(sp)
    3750:	e5838f0e 	bge	fp,r22,4590 <___vfprintf_internal_r+0x1d88>
    3754:	01400074 	movhi	r5,1
    3758:	29451a84 	addi	r5,r5,5226
    375c:	dc403015 	stw	r17,192(sp)
    3760:	d9402b15 	stw	r5,172(sp)
    3764:	b023883a 	mov	r17,r22
    3768:	04c001c4 	movi	r19,7
    376c:	a82d883a 	mov	r22,r21
    3770:	902b883a 	mov	r21,r18
    3774:	8025883a 	mov	r18,r16
    3778:	dc002c17 	ldw	r16,176(sp)
    377c:	00000306 	br	378c <___vfprintf_internal_r+0xf84>
    3780:	8c7ffc04 	addi	r17,r17,-16
    3784:	42000204 	addi	r8,r8,8
    3788:	e440110e 	bge	fp,r17,37d0 <___vfprintf_internal_r+0xfc8>
    378c:	18c00404 	addi	r3,r3,16
    3790:	10800044 	addi	r2,r2,1
    3794:	45000015 	stw	r20,0(r8)
    3798:	47000115 	stw	fp,4(r8)
    379c:	d8c02015 	stw	r3,128(sp)
    37a0:	d8801f15 	stw	r2,124(sp)
    37a4:	98bff60e 	bge	r19,r2,3780 <__alt_data_end+0xff003780>
    37a8:	d9801e04 	addi	r6,sp,120
    37ac:	b80b883a 	mov	r5,r23
    37b0:	8009883a 	mov	r4,r16
    37b4:	00095a40 	call	95a4 <__sprint_r>
    37b8:	103d151e 	bne	r2,zero,2c10 <__alt_data_end+0xff002c10>
    37bc:	8c7ffc04 	addi	r17,r17,-16
    37c0:	d8c02017 	ldw	r3,128(sp)
    37c4:	d8801f17 	ldw	r2,124(sp)
    37c8:	da000404 	addi	r8,sp,16
    37cc:	e47fef16 	blt	fp,r17,378c <__alt_data_end+0xff00378c>
    37d0:	9021883a 	mov	r16,r18
    37d4:	a825883a 	mov	r18,r21
    37d8:	b02b883a 	mov	r21,r22
    37dc:	882d883a 	mov	r22,r17
    37e0:	dc403017 	ldw	r17,192(sp)
    37e4:	d9002b17 	ldw	r4,172(sp)
    37e8:	1d87883a 	add	r3,r3,r22
    37ec:	10800044 	addi	r2,r2,1
    37f0:	41000015 	stw	r4,0(r8)
    37f4:	45800115 	stw	r22,4(r8)
    37f8:	d8c02015 	stw	r3,128(sp)
    37fc:	d8801f15 	stw	r2,124(sp)
    3800:	010001c4 	movi	r4,7
    3804:	20818e16 	blt	r4,r2,3e40 <___vfprintf_internal_r+0x1638>
    3808:	42000204 	addi	r8,r8,8
    380c:	003e3106 	br	30d4 <__alt_data_end+0xff0030d4>
    3810:	d9403317 	ldw	r5,204(sp)
    3814:	00800044 	movi	r2,1
    3818:	18c00044 	addi	r3,r3,1
    381c:	1141530e 	bge	r2,r5,3d6c <___vfprintf_internal_r+0x1564>
    3820:	dc401f17 	ldw	r17,124(sp)
    3824:	00800044 	movi	r2,1
    3828:	40800115 	stw	r2,4(r8)
    382c:	8c400044 	addi	r17,r17,1
    3830:	44000015 	stw	r16,0(r8)
    3834:	d8c02015 	stw	r3,128(sp)
    3838:	dc401f15 	stw	r17,124(sp)
    383c:	008001c4 	movi	r2,7
    3840:	14416b16 	blt	r2,r17,3df0 <___vfprintf_internal_r+0x15e8>
    3844:	42000204 	addi	r8,r8,8
    3848:	d8803717 	ldw	r2,220(sp)
    384c:	d9003417 	ldw	r4,208(sp)
    3850:	8c400044 	addi	r17,r17,1
    3854:	10c7883a 	add	r3,r2,r3
    3858:	40800115 	stw	r2,4(r8)
    385c:	41000015 	stw	r4,0(r8)
    3860:	d8c02015 	stw	r3,128(sp)
    3864:	dc401f15 	stw	r17,124(sp)
    3868:	008001c4 	movi	r2,7
    386c:	14416916 	blt	r2,r17,3e14 <___vfprintf_internal_r+0x160c>
    3870:	45800204 	addi	r22,r8,8
    3874:	d9003617 	ldw	r4,216(sp)
    3878:	d9403817 	ldw	r5,224(sp)
    387c:	000d883a 	mov	r6,zero
    3880:	000f883a 	mov	r7,zero
    3884:	d8c03c15 	stw	r3,240(sp)
    3888:	000d0680 	call	d068 <__eqdf2>
    388c:	d8c03c17 	ldw	r3,240(sp)
    3890:	1000bc26 	beq	r2,zero,3b84 <___vfprintf_internal_r+0x137c>
    3894:	d9403317 	ldw	r5,204(sp)
    3898:	84000044 	addi	r16,r16,1
    389c:	8c400044 	addi	r17,r17,1
    38a0:	28bfffc4 	addi	r2,r5,-1
    38a4:	1887883a 	add	r3,r3,r2
    38a8:	b0800115 	stw	r2,4(r22)
    38ac:	b4000015 	stw	r16,0(r22)
    38b0:	d8c02015 	stw	r3,128(sp)
    38b4:	dc401f15 	stw	r17,124(sp)
    38b8:	008001c4 	movi	r2,7
    38bc:	14414316 	blt	r2,r17,3dcc <___vfprintf_internal_r+0x15c4>
    38c0:	b5800204 	addi	r22,r22,8
    38c4:	d9003a17 	ldw	r4,232(sp)
    38c8:	df0022c4 	addi	fp,sp,139
    38cc:	8c400044 	addi	r17,r17,1
    38d0:	20c7883a 	add	r3,r4,r3
    38d4:	b7000015 	stw	fp,0(r22)
    38d8:	b1000115 	stw	r4,4(r22)
    38dc:	d8c02015 	stw	r3,128(sp)
    38e0:	dc401f15 	stw	r17,124(sp)
    38e4:	008001c4 	movi	r2,7
    38e8:	14400e16 	blt	r2,r17,3924 <___vfprintf_internal_r+0x111c>
    38ec:	b2000204 	addi	r8,r22,8
    38f0:	003e3a06 	br	31dc <__alt_data_end+0xff0031dc>
    38f4:	01000074 	movhi	r4,1
    38f8:	21051a84 	addi	r4,r4,5226
    38fc:	d9002b15 	stw	r4,172(sp)
    3900:	d9002b17 	ldw	r4,172(sp)
    3904:	1c07883a 	add	r3,r3,r16
    3908:	44000115 	stw	r16,4(r8)
    390c:	41000015 	stw	r4,0(r8)
    3910:	10800044 	addi	r2,r2,1
    3914:	d8c02015 	stw	r3,128(sp)
    3918:	d8801f15 	stw	r2,124(sp)
    391c:	010001c4 	movi	r4,7
    3920:	20be2d0e 	bge	r4,r2,31d8 <__alt_data_end+0xff0031d8>
    3924:	d9002c17 	ldw	r4,176(sp)
    3928:	d9801e04 	addi	r6,sp,120
    392c:	b80b883a 	mov	r5,r23
    3930:	00095a40 	call	95a4 <__sprint_r>
    3934:	103cb61e 	bne	r2,zero,2c10 <__alt_data_end+0xff002c10>
    3938:	d8c02017 	ldw	r3,128(sp)
    393c:	da000404 	addi	r8,sp,16
    3940:	003e2606 	br	31dc <__alt_data_end+0xff0031dc>
    3944:	d9002c17 	ldw	r4,176(sp)
    3948:	d9801e04 	addi	r6,sp,120
    394c:	b80b883a 	mov	r5,r23
    3950:	00095a40 	call	95a4 <__sprint_r>
    3954:	103e5d26 	beq	r2,zero,32cc <__alt_data_end+0xff0032cc>
    3958:	003cad06 	br	2c10 <__alt_data_end+0xff002c10>
    395c:	d9002c17 	ldw	r4,176(sp)
    3960:	d9801e04 	addi	r6,sp,120
    3964:	b80b883a 	mov	r5,r23
    3968:	00095a40 	call	95a4 <__sprint_r>
    396c:	103ca81e 	bne	r2,zero,2c10 <__alt_data_end+0xff002c10>
    3970:	d8c02017 	ldw	r3,128(sp)
    3974:	da000404 	addi	r8,sp,16
    3978:	003e0b06 	br	31a8 <__alt_data_end+0xff0031a8>
    397c:	d9002c17 	ldw	r4,176(sp)
    3980:	d9801e04 	addi	r6,sp,120
    3984:	b80b883a 	mov	r5,r23
    3988:	00095a40 	call	95a4 <__sprint_r>
    398c:	103ca01e 	bne	r2,zero,2c10 <__alt_data_end+0xff002c10>
    3990:	d8c02017 	ldw	r3,128(sp)
    3994:	da000404 	addi	r8,sp,16
    3998:	003dbd06 	br	3090 <__alt_data_end+0xff003090>
    399c:	d9002c17 	ldw	r4,176(sp)
    39a0:	d9801e04 	addi	r6,sp,120
    39a4:	b80b883a 	mov	r5,r23
    39a8:	00095a40 	call	95a4 <__sprint_r>
    39ac:	103c981e 	bne	r2,zero,2c10 <__alt_data_end+0xff002c10>
    39b0:	d8c02017 	ldw	r3,128(sp)
    39b4:	da000404 	addi	r8,sp,16
    39b8:	003dc306 	br	30c8 <__alt_data_end+0xff0030c8>
    39bc:	d8802917 	ldw	r2,164(sp)
    39c0:	d8002785 	stb	zero,158(sp)
    39c4:	103f0616 	blt	r2,zero,35e0 <__alt_data_end+0xff0035e0>
    39c8:	00ffdfc4 	movi	r3,-129
    39cc:	9d84b03a 	or	r2,r19,r22
    39d0:	90e4703a 	and	r18,r18,r3
    39d4:	103c6b26 	beq	r2,zero,2b84 <__alt_data_end+0xff002b84>
    39d8:	0039883a 	mov	fp,zero
    39dc:	003e7406 	br	33b0 <__alt_data_end+0xff0033b0>
    39e0:	9080040c 	andi	r2,r18,16
    39e4:	1001b326 	beq	r2,zero,40b4 <___vfprintf_internal_r+0x18ac>
    39e8:	d9002d17 	ldw	r4,180(sp)
    39ec:	d9402917 	ldw	r5,164(sp)
    39f0:	d8002785 	stb	zero,158(sp)
    39f4:	20800104 	addi	r2,r4,4
    39f8:	24c00017 	ldw	r19,0(r4)
    39fc:	002d883a 	mov	r22,zero
    3a00:	2801b516 	blt	r5,zero,40d8 <___vfprintf_internal_r+0x18d0>
    3a04:	00ffdfc4 	movi	r3,-129
    3a08:	d8802d15 	stw	r2,180(sp)
    3a0c:	90e4703a 	and	r18,r18,r3
    3a10:	983d2726 	beq	r19,zero,2eb0 <__alt_data_end+0xff002eb0>
    3a14:	0039883a 	mov	fp,zero
    3a18:	003d2a06 	br	2ec4 <__alt_data_end+0xff002ec4>
    3a1c:	dc402617 	ldw	r17,152(sp)
    3a20:	0441d30e 	bge	zero,r17,4170 <___vfprintf_internal_r+0x1968>
    3a24:	dc403217 	ldw	r17,200(sp)
    3a28:	d8803317 	ldw	r2,204(sp)
    3a2c:	1440010e 	bge	r2,r17,3a34 <___vfprintf_internal_r+0x122c>
    3a30:	1023883a 	mov	r17,r2
    3a34:	04400a0e 	bge	zero,r17,3a60 <___vfprintf_internal_r+0x1258>
    3a38:	d8801f17 	ldw	r2,124(sp)
    3a3c:	1c47883a 	add	r3,r3,r17
    3a40:	44000015 	stw	r16,0(r8)
    3a44:	10800044 	addi	r2,r2,1
    3a48:	44400115 	stw	r17,4(r8)
    3a4c:	d8c02015 	stw	r3,128(sp)
    3a50:	d8801f15 	stw	r2,124(sp)
    3a54:	010001c4 	movi	r4,7
    3a58:	20826516 	blt	r4,r2,43f0 <___vfprintf_internal_r+0x1be8>
    3a5c:	42000204 	addi	r8,r8,8
    3a60:	88026116 	blt	r17,zero,43e8 <___vfprintf_internal_r+0x1be0>
    3a64:	d9003217 	ldw	r4,200(sp)
    3a68:	2463c83a 	sub	r17,r4,r17
    3a6c:	04407b0e 	bge	zero,r17,3c5c <___vfprintf_internal_r+0x1454>
    3a70:	05800404 	movi	r22,16
    3a74:	d8801f17 	ldw	r2,124(sp)
    3a78:	b4419d0e 	bge	r22,r17,40f0 <___vfprintf_internal_r+0x18e8>
    3a7c:	01000074 	movhi	r4,1
    3a80:	21051a84 	addi	r4,r4,5226
    3a84:	d9002b15 	stw	r4,172(sp)
    3a88:	070001c4 	movi	fp,7
    3a8c:	dcc02c17 	ldw	r19,176(sp)
    3a90:	00000306 	br	3aa0 <___vfprintf_internal_r+0x1298>
    3a94:	42000204 	addi	r8,r8,8
    3a98:	8c7ffc04 	addi	r17,r17,-16
    3a9c:	b441970e 	bge	r22,r17,40fc <___vfprintf_internal_r+0x18f4>
    3aa0:	18c00404 	addi	r3,r3,16
    3aa4:	10800044 	addi	r2,r2,1
    3aa8:	45000015 	stw	r20,0(r8)
    3aac:	45800115 	stw	r22,4(r8)
    3ab0:	d8c02015 	stw	r3,128(sp)
    3ab4:	d8801f15 	stw	r2,124(sp)
    3ab8:	e0bff60e 	bge	fp,r2,3a94 <__alt_data_end+0xff003a94>
    3abc:	d9801e04 	addi	r6,sp,120
    3ac0:	b80b883a 	mov	r5,r23
    3ac4:	9809883a 	mov	r4,r19
    3ac8:	00095a40 	call	95a4 <__sprint_r>
    3acc:	103c501e 	bne	r2,zero,2c10 <__alt_data_end+0xff002c10>
    3ad0:	d8c02017 	ldw	r3,128(sp)
    3ad4:	d8801f17 	ldw	r2,124(sp)
    3ad8:	da000404 	addi	r8,sp,16
    3adc:	003fee06 	br	3a98 <__alt_data_end+0xff003a98>
    3ae0:	d9002c17 	ldw	r4,176(sp)
    3ae4:	d9801e04 	addi	r6,sp,120
    3ae8:	b80b883a 	mov	r5,r23
    3aec:	00095a40 	call	95a4 <__sprint_r>
    3af0:	103c471e 	bne	r2,zero,2c10 <__alt_data_end+0xff002c10>
    3af4:	d8c02017 	ldw	r3,128(sp)
    3af8:	df002787 	ldb	fp,158(sp)
    3afc:	da000404 	addi	r8,sp,16
    3b00:	003d5606 	br	305c <__alt_data_end+0xff00305c>
    3b04:	9080040c 	andi	r2,r18,16
    3b08:	10016126 	beq	r2,zero,4090 <___vfprintf_internal_r+0x1888>
    3b0c:	d8802d17 	ldw	r2,180(sp)
    3b10:	14c00017 	ldw	r19,0(r2)
    3b14:	10800104 	addi	r2,r2,4
    3b18:	d8802d15 	stw	r2,180(sp)
    3b1c:	982dd7fa 	srai	r22,r19,31
    3b20:	b005883a 	mov	r2,r22
    3b24:	003c8206 	br	2d30 <__alt_data_end+0xff002d30>
    3b28:	9080040c 	andi	r2,r18,16
    3b2c:	10003526 	beq	r2,zero,3c04 <___vfprintf_internal_r+0x13fc>
    3b30:	d9402d17 	ldw	r5,180(sp)
    3b34:	d8c02917 	ldw	r3,164(sp)
    3b38:	d8002785 	stb	zero,158(sp)
    3b3c:	28800104 	addi	r2,r5,4
    3b40:	2cc00017 	ldw	r19,0(r5)
    3b44:	002d883a 	mov	r22,zero
    3b48:	18003716 	blt	r3,zero,3c28 <___vfprintf_internal_r+0x1420>
    3b4c:	00ffdfc4 	movi	r3,-129
    3b50:	d8802d15 	stw	r2,180(sp)
    3b54:	90e4703a 	and	r18,r18,r3
    3b58:	0039883a 	mov	fp,zero
    3b5c:	983df326 	beq	r19,zero,332c <__alt_data_end+0xff00332c>
    3b60:	00800244 	movi	r2,9
    3b64:	14fc7b36 	bltu	r2,r19,2d54 <__alt_data_end+0xff002d54>
    3b68:	d8c02817 	ldw	r3,160(sp)
    3b6c:	dc001dc4 	addi	r16,sp,119
    3b70:	9cc00c04 	addi	r19,r19,48
    3b74:	1c07c83a 	sub	r3,r3,r16
    3b78:	dcc01dc5 	stb	r19,119(sp)
    3b7c:	d8c02e15 	stw	r3,184(sp)
    3b80:	003ce806 	br	2f24 <__alt_data_end+0xff002f24>
    3b84:	d8803317 	ldw	r2,204(sp)
    3b88:	143fffc4 	addi	r16,r2,-1
    3b8c:	043f4d0e 	bge	zero,r16,38c4 <__alt_data_end+0xff0038c4>
    3b90:	07000404 	movi	fp,16
    3b94:	e400810e 	bge	fp,r16,3d9c <___vfprintf_internal_r+0x1594>
    3b98:	01400074 	movhi	r5,1
    3b9c:	29451a84 	addi	r5,r5,5226
    3ba0:	d9402b15 	stw	r5,172(sp)
    3ba4:	01c001c4 	movi	r7,7
    3ba8:	dcc02c17 	ldw	r19,176(sp)
    3bac:	00000306 	br	3bbc <___vfprintf_internal_r+0x13b4>
    3bb0:	b5800204 	addi	r22,r22,8
    3bb4:	843ffc04 	addi	r16,r16,-16
    3bb8:	e4007b0e 	bge	fp,r16,3da8 <___vfprintf_internal_r+0x15a0>
    3bbc:	18c00404 	addi	r3,r3,16
    3bc0:	8c400044 	addi	r17,r17,1
    3bc4:	b5000015 	stw	r20,0(r22)
    3bc8:	b7000115 	stw	fp,4(r22)
    3bcc:	d8c02015 	stw	r3,128(sp)
    3bd0:	dc401f15 	stw	r17,124(sp)
    3bd4:	3c7ff60e 	bge	r7,r17,3bb0 <__alt_data_end+0xff003bb0>
    3bd8:	d9801e04 	addi	r6,sp,120
    3bdc:	b80b883a 	mov	r5,r23
    3be0:	9809883a 	mov	r4,r19
    3be4:	d9c03c15 	stw	r7,240(sp)
    3be8:	00095a40 	call	95a4 <__sprint_r>
    3bec:	d9c03c17 	ldw	r7,240(sp)
    3bf0:	103c071e 	bne	r2,zero,2c10 <__alt_data_end+0xff002c10>
    3bf4:	d8c02017 	ldw	r3,128(sp)
    3bf8:	dc401f17 	ldw	r17,124(sp)
    3bfc:	dd800404 	addi	r22,sp,16
    3c00:	003fec06 	br	3bb4 <__alt_data_end+0xff003bb4>
    3c04:	9080100c 	andi	r2,r18,64
    3c08:	d8002785 	stb	zero,158(sp)
    3c0c:	10010e26 	beq	r2,zero,4048 <___vfprintf_internal_r+0x1840>
    3c10:	d9002d17 	ldw	r4,180(sp)
    3c14:	d9402917 	ldw	r5,164(sp)
    3c18:	002d883a 	mov	r22,zero
    3c1c:	20800104 	addi	r2,r4,4
    3c20:	24c0000b 	ldhu	r19,0(r4)
    3c24:	283fc90e 	bge	r5,zero,3b4c <__alt_data_end+0xff003b4c>
    3c28:	d8802d15 	stw	r2,180(sp)
    3c2c:	0039883a 	mov	fp,zero
    3c30:	9d84b03a 	or	r2,r19,r22
    3c34:	103c461e 	bne	r2,zero,2d50 <__alt_data_end+0xff002d50>
    3c38:	00800044 	movi	r2,1
    3c3c:	003e6c06 	br	35f0 <__alt_data_end+0xff0035f0>
    3c40:	d9002c17 	ldw	r4,176(sp)
    3c44:	d9801e04 	addi	r6,sp,120
    3c48:	b80b883a 	mov	r5,r23
    3c4c:	00095a40 	call	95a4 <__sprint_r>
    3c50:	103bef1e 	bne	r2,zero,2c10 <__alt_data_end+0xff002c10>
    3c54:	d8c02017 	ldw	r3,128(sp)
    3c58:	da000404 	addi	r8,sp,16
    3c5c:	d9003217 	ldw	r4,200(sp)
    3c60:	d8802617 	ldw	r2,152(sp)
    3c64:	d9403317 	ldw	r5,204(sp)
    3c68:	8123883a 	add	r17,r16,r4
    3c6c:	11400216 	blt	r2,r5,3c78 <___vfprintf_internal_r+0x1470>
    3c70:	9100004c 	andi	r4,r18,1
    3c74:	20000d26 	beq	r4,zero,3cac <___vfprintf_internal_r+0x14a4>
    3c78:	d9003717 	ldw	r4,220(sp)
    3c7c:	d9403417 	ldw	r5,208(sp)
    3c80:	1907883a 	add	r3,r3,r4
    3c84:	d9001f17 	ldw	r4,124(sp)
    3c88:	41400015 	stw	r5,0(r8)
    3c8c:	d9403717 	ldw	r5,220(sp)
    3c90:	21000044 	addi	r4,r4,1
    3c94:	d8c02015 	stw	r3,128(sp)
    3c98:	41400115 	stw	r5,4(r8)
    3c9c:	d9001f15 	stw	r4,124(sp)
    3ca0:	014001c4 	movi	r5,7
    3ca4:	2901e816 	blt	r5,r4,4448 <___vfprintf_internal_r+0x1c40>
    3ca8:	42000204 	addi	r8,r8,8
    3cac:	d9003317 	ldw	r4,204(sp)
    3cb0:	8121883a 	add	r16,r16,r4
    3cb4:	2085c83a 	sub	r2,r4,r2
    3cb8:	8461c83a 	sub	r16,r16,r17
    3cbc:	1400010e 	bge	r2,r16,3cc4 <___vfprintf_internal_r+0x14bc>
    3cc0:	1021883a 	mov	r16,r2
    3cc4:	04000a0e 	bge	zero,r16,3cf0 <___vfprintf_internal_r+0x14e8>
    3cc8:	d9001f17 	ldw	r4,124(sp)
    3ccc:	1c07883a 	add	r3,r3,r16
    3cd0:	44400015 	stw	r17,0(r8)
    3cd4:	21000044 	addi	r4,r4,1
    3cd8:	44000115 	stw	r16,4(r8)
    3cdc:	d8c02015 	stw	r3,128(sp)
    3ce0:	d9001f15 	stw	r4,124(sp)
    3ce4:	014001c4 	movi	r5,7
    3ce8:	2901fb16 	blt	r5,r4,44d8 <___vfprintf_internal_r+0x1cd0>
    3cec:	42000204 	addi	r8,r8,8
    3cf0:	8001f716 	blt	r16,zero,44d0 <___vfprintf_internal_r+0x1cc8>
    3cf4:	1421c83a 	sub	r16,r2,r16
    3cf8:	043d380e 	bge	zero,r16,31dc <__alt_data_end+0xff0031dc>
    3cfc:	04400404 	movi	r17,16
    3d00:	d8801f17 	ldw	r2,124(sp)
    3d04:	8c3efb0e 	bge	r17,r16,38f4 <__alt_data_end+0xff0038f4>
    3d08:	01400074 	movhi	r5,1
    3d0c:	29451a84 	addi	r5,r5,5226
    3d10:	d9402b15 	stw	r5,172(sp)
    3d14:	058001c4 	movi	r22,7
    3d18:	dcc02c17 	ldw	r19,176(sp)
    3d1c:	00000306 	br	3d2c <___vfprintf_internal_r+0x1524>
    3d20:	42000204 	addi	r8,r8,8
    3d24:	843ffc04 	addi	r16,r16,-16
    3d28:	8c3ef50e 	bge	r17,r16,3900 <__alt_data_end+0xff003900>
    3d2c:	18c00404 	addi	r3,r3,16
    3d30:	10800044 	addi	r2,r2,1
    3d34:	45000015 	stw	r20,0(r8)
    3d38:	44400115 	stw	r17,4(r8)
    3d3c:	d8c02015 	stw	r3,128(sp)
    3d40:	d8801f15 	stw	r2,124(sp)
    3d44:	b0bff60e 	bge	r22,r2,3d20 <__alt_data_end+0xff003d20>
    3d48:	d9801e04 	addi	r6,sp,120
    3d4c:	b80b883a 	mov	r5,r23
    3d50:	9809883a 	mov	r4,r19
    3d54:	00095a40 	call	95a4 <__sprint_r>
    3d58:	103bad1e 	bne	r2,zero,2c10 <__alt_data_end+0xff002c10>
    3d5c:	d8c02017 	ldw	r3,128(sp)
    3d60:	d8801f17 	ldw	r2,124(sp)
    3d64:	da000404 	addi	r8,sp,16
    3d68:	003fee06 	br	3d24 <__alt_data_end+0xff003d24>
    3d6c:	9088703a 	and	r4,r18,r2
    3d70:	203eab1e 	bne	r4,zero,3820 <__alt_data_end+0xff003820>
    3d74:	dc401f17 	ldw	r17,124(sp)
    3d78:	40800115 	stw	r2,4(r8)
    3d7c:	44000015 	stw	r16,0(r8)
    3d80:	8c400044 	addi	r17,r17,1
    3d84:	d8c02015 	stw	r3,128(sp)
    3d88:	dc401f15 	stw	r17,124(sp)
    3d8c:	008001c4 	movi	r2,7
    3d90:	14400e16 	blt	r2,r17,3dcc <___vfprintf_internal_r+0x15c4>
    3d94:	45800204 	addi	r22,r8,8
    3d98:	003eca06 	br	38c4 <__alt_data_end+0xff0038c4>
    3d9c:	01000074 	movhi	r4,1
    3da0:	21051a84 	addi	r4,r4,5226
    3da4:	d9002b15 	stw	r4,172(sp)
    3da8:	d8802b17 	ldw	r2,172(sp)
    3dac:	1c07883a 	add	r3,r3,r16
    3db0:	8c400044 	addi	r17,r17,1
    3db4:	b0800015 	stw	r2,0(r22)
    3db8:	b4000115 	stw	r16,4(r22)
    3dbc:	d8c02015 	stw	r3,128(sp)
    3dc0:	dc401f15 	stw	r17,124(sp)
    3dc4:	008001c4 	movi	r2,7
    3dc8:	147ebd0e 	bge	r2,r17,38c0 <__alt_data_end+0xff0038c0>
    3dcc:	d9002c17 	ldw	r4,176(sp)
    3dd0:	d9801e04 	addi	r6,sp,120
    3dd4:	b80b883a 	mov	r5,r23
    3dd8:	00095a40 	call	95a4 <__sprint_r>
    3ddc:	103b8c1e 	bne	r2,zero,2c10 <__alt_data_end+0xff002c10>
    3de0:	d8c02017 	ldw	r3,128(sp)
    3de4:	dc401f17 	ldw	r17,124(sp)
    3de8:	dd800404 	addi	r22,sp,16
    3dec:	003eb506 	br	38c4 <__alt_data_end+0xff0038c4>
    3df0:	d9002c17 	ldw	r4,176(sp)
    3df4:	d9801e04 	addi	r6,sp,120
    3df8:	b80b883a 	mov	r5,r23
    3dfc:	00095a40 	call	95a4 <__sprint_r>
    3e00:	103b831e 	bne	r2,zero,2c10 <__alt_data_end+0xff002c10>
    3e04:	d8c02017 	ldw	r3,128(sp)
    3e08:	dc401f17 	ldw	r17,124(sp)
    3e0c:	da000404 	addi	r8,sp,16
    3e10:	003e8d06 	br	3848 <__alt_data_end+0xff003848>
    3e14:	d9002c17 	ldw	r4,176(sp)
    3e18:	d9801e04 	addi	r6,sp,120
    3e1c:	b80b883a 	mov	r5,r23
    3e20:	00095a40 	call	95a4 <__sprint_r>
    3e24:	103b7a1e 	bne	r2,zero,2c10 <__alt_data_end+0xff002c10>
    3e28:	d8c02017 	ldw	r3,128(sp)
    3e2c:	dc401f17 	ldw	r17,124(sp)
    3e30:	dd800404 	addi	r22,sp,16
    3e34:	003e8f06 	br	3874 <__alt_data_end+0xff003874>
    3e38:	0027883a 	mov	r19,zero
    3e3c:	003f4a06 	br	3b68 <__alt_data_end+0xff003b68>
    3e40:	d9002c17 	ldw	r4,176(sp)
    3e44:	d9801e04 	addi	r6,sp,120
    3e48:	b80b883a 	mov	r5,r23
    3e4c:	00095a40 	call	95a4 <__sprint_r>
    3e50:	103b6f1e 	bne	r2,zero,2c10 <__alt_data_end+0xff002c10>
    3e54:	d8c02017 	ldw	r3,128(sp)
    3e58:	da000404 	addi	r8,sp,16
    3e5c:	003c9d06 	br	30d4 <__alt_data_end+0xff0030d4>
    3e60:	04e7c83a 	sub	r19,zero,r19
    3e64:	9804c03a 	cmpne	r2,r19,zero
    3e68:	05adc83a 	sub	r22,zero,r22
    3e6c:	b0adc83a 	sub	r22,r22,r2
    3e70:	d8802917 	ldw	r2,164(sp)
    3e74:	07000b44 	movi	fp,45
    3e78:	df002785 	stb	fp,158(sp)
    3e7c:	10017b16 	blt	r2,zero,446c <___vfprintf_internal_r+0x1c64>
    3e80:	00bfdfc4 	movi	r2,-129
    3e84:	90a4703a 	and	r18,r18,r2
    3e88:	003bb106 	br	2d50 <__alt_data_end+0xff002d50>
    3e8c:	d9003617 	ldw	r4,216(sp)
    3e90:	d9403817 	ldw	r5,224(sp)
    3e94:	da003d15 	stw	r8,244(sp)
    3e98:	000921c0 	call	921c <__fpclassifyd>
    3e9c:	da003d17 	ldw	r8,244(sp)
    3ea0:	1000f026 	beq	r2,zero,4264 <___vfprintf_internal_r+0x1a5c>
    3ea4:	d9002917 	ldw	r4,164(sp)
    3ea8:	05bff7c4 	movi	r22,-33
    3eac:	00bfffc4 	movi	r2,-1
    3eb0:	8dac703a 	and	r22,r17,r22
    3eb4:	20820026 	beq	r4,r2,46b8 <___vfprintf_internal_r+0x1eb0>
    3eb8:	008011c4 	movi	r2,71
    3ebc:	b081f726 	beq	r22,r2,469c <___vfprintf_internal_r+0x1e94>
    3ec0:	d9003817 	ldw	r4,224(sp)
    3ec4:	90c04014 	ori	r3,r18,256
    3ec8:	d8c02b15 	stw	r3,172(sp)
    3ecc:	20021516 	blt	r4,zero,4724 <___vfprintf_internal_r+0x1f1c>
    3ed0:	dcc03817 	ldw	r19,224(sp)
    3ed4:	d8002a05 	stb	zero,168(sp)
    3ed8:	00801984 	movi	r2,102
    3edc:	8881f926 	beq	r17,r2,46c4 <___vfprintf_internal_r+0x1ebc>
    3ee0:	00801184 	movi	r2,70
    3ee4:	88821c26 	beq	r17,r2,4758 <___vfprintf_internal_r+0x1f50>
    3ee8:	00801144 	movi	r2,69
    3eec:	b081ef26 	beq	r22,r2,46ac <___vfprintf_internal_r+0x1ea4>
    3ef0:	d8c02917 	ldw	r3,164(sp)
    3ef4:	d8802104 	addi	r2,sp,132
    3ef8:	d8800315 	stw	r2,12(sp)
    3efc:	d9403617 	ldw	r5,216(sp)
    3f00:	d8802504 	addi	r2,sp,148
    3f04:	d9002c17 	ldw	r4,176(sp)
    3f08:	d8800215 	stw	r2,8(sp)
    3f0c:	d8802604 	addi	r2,sp,152
    3f10:	d8c00015 	stw	r3,0(sp)
    3f14:	d8800115 	stw	r2,4(sp)
    3f18:	01c00084 	movi	r7,2
    3f1c:	980d883a 	mov	r6,r19
    3f20:	d8c03c15 	stw	r3,240(sp)
    3f24:	da003d15 	stw	r8,244(sp)
    3f28:	0004e2c0 	call	4e2c <_dtoa_r>
    3f2c:	1021883a 	mov	r16,r2
    3f30:	008019c4 	movi	r2,103
    3f34:	d8c03c17 	ldw	r3,240(sp)
    3f38:	da003d17 	ldw	r8,244(sp)
    3f3c:	88817126 	beq	r17,r2,4504 <___vfprintf_internal_r+0x1cfc>
    3f40:	008011c4 	movi	r2,71
    3f44:	88829226 	beq	r17,r2,4990 <___vfprintf_internal_r+0x2188>
    3f48:	80f9883a 	add	fp,r16,r3
    3f4c:	d9003617 	ldw	r4,216(sp)
    3f50:	000d883a 	mov	r6,zero
    3f54:	000f883a 	mov	r7,zero
    3f58:	980b883a 	mov	r5,r19
    3f5c:	da003d15 	stw	r8,244(sp)
    3f60:	000d0680 	call	d068 <__eqdf2>
    3f64:	da003d17 	ldw	r8,244(sp)
    3f68:	10018d26 	beq	r2,zero,45a0 <___vfprintf_internal_r+0x1d98>
    3f6c:	d8802117 	ldw	r2,132(sp)
    3f70:	1700062e 	bgeu	r2,fp,3f8c <___vfprintf_internal_r+0x1784>
    3f74:	01000c04 	movi	r4,48
    3f78:	10c00044 	addi	r3,r2,1
    3f7c:	d8c02115 	stw	r3,132(sp)
    3f80:	11000005 	stb	r4,0(r2)
    3f84:	d8802117 	ldw	r2,132(sp)
    3f88:	173ffb36 	bltu	r2,fp,3f78 <__alt_data_end+0xff003f78>
    3f8c:	1405c83a 	sub	r2,r2,r16
    3f90:	d8803315 	stw	r2,204(sp)
    3f94:	008011c4 	movi	r2,71
    3f98:	b0817626 	beq	r22,r2,4574 <___vfprintf_internal_r+0x1d6c>
    3f9c:	00801944 	movi	r2,101
    3fa0:	1442810e 	bge	r2,r17,49a8 <___vfprintf_internal_r+0x21a0>
    3fa4:	d8c02617 	ldw	r3,152(sp)
    3fa8:	00801984 	movi	r2,102
    3fac:	d8c03215 	stw	r3,200(sp)
    3fb0:	8881fe26 	beq	r17,r2,47ac <___vfprintf_internal_r+0x1fa4>
    3fb4:	d8c03217 	ldw	r3,200(sp)
    3fb8:	d9003317 	ldw	r4,204(sp)
    3fbc:	1901dd16 	blt	r3,r4,4734 <___vfprintf_internal_r+0x1f2c>
    3fc0:	9480004c 	andi	r18,r18,1
    3fc4:	90022b1e 	bne	r18,zero,4874 <___vfprintf_internal_r+0x206c>
    3fc8:	1805883a 	mov	r2,r3
    3fcc:	18028016 	blt	r3,zero,49d0 <___vfprintf_internal_r+0x21c8>
    3fd0:	d8c03217 	ldw	r3,200(sp)
    3fd4:	044019c4 	movi	r17,103
    3fd8:	d8c02e15 	stw	r3,184(sp)
    3fdc:	df002a07 	ldb	fp,168(sp)
    3fe0:	e001531e 	bne	fp,zero,4530 <___vfprintf_internal_r+0x1d28>
    3fe4:	df002783 	ldbu	fp,158(sp)
    3fe8:	d8802a15 	stw	r2,168(sp)
    3fec:	dc802b17 	ldw	r18,172(sp)
    3ff0:	d8002915 	stw	zero,164(sp)
    3ff4:	003bd106 	br	2f3c <__alt_data_end+0xff002f3c>
    3ff8:	d8802d17 	ldw	r2,180(sp)
    3ffc:	d8c02d17 	ldw	r3,180(sp)
    4000:	d9002d17 	ldw	r4,180(sp)
    4004:	10800017 	ldw	r2,0(r2)
    4008:	18c00117 	ldw	r3,4(r3)
    400c:	21000204 	addi	r4,r4,8
    4010:	d8803615 	stw	r2,216(sp)
    4014:	d8c03815 	stw	r3,224(sp)
    4018:	d9002d15 	stw	r4,180(sp)
    401c:	003b7506 	br	2df4 <__alt_data_end+0xff002df4>
    4020:	ac400007 	ldb	r17,0(r21)
    4024:	003a5906 	br	298c <__alt_data_end+0xff00298c>
    4028:	9080100c 	andi	r2,r18,64
    402c:	1000a826 	beq	r2,zero,42d0 <___vfprintf_internal_r+0x1ac8>
    4030:	d9002d17 	ldw	r4,180(sp)
    4034:	002d883a 	mov	r22,zero
    4038:	24c0000b 	ldhu	r19,0(r4)
    403c:	21000104 	addi	r4,r4,4
    4040:	d9002d15 	stw	r4,180(sp)
    4044:	003ccb06 	br	3374 <__alt_data_end+0xff003374>
    4048:	d8c02d17 	ldw	r3,180(sp)
    404c:	d9002917 	ldw	r4,164(sp)
    4050:	002d883a 	mov	r22,zero
    4054:	18800104 	addi	r2,r3,4
    4058:	1cc00017 	ldw	r19,0(r3)
    405c:	203ebb0e 	bge	r4,zero,3b4c <__alt_data_end+0xff003b4c>
    4060:	003ef106 	br	3c28 <__alt_data_end+0xff003c28>
    4064:	9080040c 	andi	r2,r18,16
    4068:	1000921e 	bne	r2,zero,42b4 <___vfprintf_internal_r+0x1aac>
    406c:	9480100c 	andi	r18,r18,64
    4070:	90013926 	beq	r18,zero,4558 <___vfprintf_internal_r+0x1d50>
    4074:	d9002d17 	ldw	r4,180(sp)
    4078:	d9402f17 	ldw	r5,188(sp)
    407c:	20800017 	ldw	r2,0(r4)
    4080:	21000104 	addi	r4,r4,4
    4084:	d9002d15 	stw	r4,180(sp)
    4088:	1140000d 	sth	r5,0(r2)
    408c:	003a1606 	br	28e8 <__alt_data_end+0xff0028e8>
    4090:	9080100c 	andi	r2,r18,64
    4094:	10008026 	beq	r2,zero,4298 <___vfprintf_internal_r+0x1a90>
    4098:	d8c02d17 	ldw	r3,180(sp)
    409c:	1cc0000f 	ldh	r19,0(r3)
    40a0:	18c00104 	addi	r3,r3,4
    40a4:	d8c02d15 	stw	r3,180(sp)
    40a8:	982dd7fa 	srai	r22,r19,31
    40ac:	b005883a 	mov	r2,r22
    40b0:	003b1f06 	br	2d30 <__alt_data_end+0xff002d30>
    40b4:	9080100c 	andi	r2,r18,64
    40b8:	d8002785 	stb	zero,158(sp)
    40bc:	10008a1e 	bne	r2,zero,42e8 <___vfprintf_internal_r+0x1ae0>
    40c0:	d9402d17 	ldw	r5,180(sp)
    40c4:	d8c02917 	ldw	r3,164(sp)
    40c8:	002d883a 	mov	r22,zero
    40cc:	28800104 	addi	r2,r5,4
    40d0:	2cc00017 	ldw	r19,0(r5)
    40d4:	183e4b0e 	bge	r3,zero,3a04 <__alt_data_end+0xff003a04>
    40d8:	9d86b03a 	or	r3,r19,r22
    40dc:	d8802d15 	stw	r2,180(sp)
    40e0:	183e4c1e 	bne	r3,zero,3a14 <__alt_data_end+0xff003a14>
    40e4:	0039883a 	mov	fp,zero
    40e8:	0005883a 	mov	r2,zero
    40ec:	003d4006 	br	35f0 <__alt_data_end+0xff0035f0>
    40f0:	01400074 	movhi	r5,1
    40f4:	29451a84 	addi	r5,r5,5226
    40f8:	d9402b15 	stw	r5,172(sp)
    40fc:	d9402b17 	ldw	r5,172(sp)
    4100:	1c47883a 	add	r3,r3,r17
    4104:	10800044 	addi	r2,r2,1
    4108:	41400015 	stw	r5,0(r8)
    410c:	44400115 	stw	r17,4(r8)
    4110:	d8c02015 	stw	r3,128(sp)
    4114:	d8801f15 	stw	r2,124(sp)
    4118:	010001c4 	movi	r4,7
    411c:	20bec816 	blt	r4,r2,3c40 <__alt_data_end+0xff003c40>
    4120:	42000204 	addi	r8,r8,8
    4124:	003ecd06 	br	3c5c <__alt_data_end+0xff003c5c>
    4128:	d9002917 	ldw	r4,164(sp)
    412c:	d8002785 	stb	zero,158(sp)
    4130:	203d2d16 	blt	r4,zero,35e8 <__alt_data_end+0xff0035e8>
    4134:	00bfdfc4 	movi	r2,-129
    4138:	90a4703a 	and	r18,r18,r2
    413c:	003a9106 	br	2b84 <__alt_data_end+0xff002b84>
    4140:	01000074 	movhi	r4,1
    4144:	21051a84 	addi	r4,r4,5226
    4148:	d9002b15 	stw	r4,172(sp)
    414c:	003c0c06 	br	3180 <__alt_data_end+0xff003180>
    4150:	d9002c17 	ldw	r4,176(sp)
    4154:	d9801e04 	addi	r6,sp,120
    4158:	b80b883a 	mov	r5,r23
    415c:	00095a40 	call	95a4 <__sprint_r>
    4160:	103aab1e 	bne	r2,zero,2c10 <__alt_data_end+0xff002c10>
    4164:	d8c02017 	ldw	r3,128(sp)
    4168:	da000404 	addi	r8,sp,16
    416c:	003d4106 	br	3674 <__alt_data_end+0xff003674>
    4170:	d8801f17 	ldw	r2,124(sp)
    4174:	01400074 	movhi	r5,1
    4178:	01000044 	movi	r4,1
    417c:	18c00044 	addi	r3,r3,1
    4180:	10800044 	addi	r2,r2,1
    4184:	29451a04 	addi	r5,r5,5224
    4188:	41000115 	stw	r4,4(r8)
    418c:	41400015 	stw	r5,0(r8)
    4190:	d8c02015 	stw	r3,128(sp)
    4194:	d8801f15 	stw	r2,124(sp)
    4198:	010001c4 	movi	r4,7
    419c:	20805c16 	blt	r4,r2,4310 <___vfprintf_internal_r+0x1b08>
    41a0:	42000204 	addi	r8,r8,8
    41a4:	8800041e 	bne	r17,zero,41b8 <___vfprintf_internal_r+0x19b0>
    41a8:	d8803317 	ldw	r2,204(sp)
    41ac:	1000021e 	bne	r2,zero,41b8 <___vfprintf_internal_r+0x19b0>
    41b0:	9080004c 	andi	r2,r18,1
    41b4:	103c0926 	beq	r2,zero,31dc <__alt_data_end+0xff0031dc>
    41b8:	d9003717 	ldw	r4,220(sp)
    41bc:	d8801f17 	ldw	r2,124(sp)
    41c0:	d9403417 	ldw	r5,208(sp)
    41c4:	20c7883a 	add	r3,r4,r3
    41c8:	10800044 	addi	r2,r2,1
    41cc:	41000115 	stw	r4,4(r8)
    41d0:	41400015 	stw	r5,0(r8)
    41d4:	d8c02015 	stw	r3,128(sp)
    41d8:	d8801f15 	stw	r2,124(sp)
    41dc:	010001c4 	movi	r4,7
    41e0:	20812116 	blt	r4,r2,4668 <___vfprintf_internal_r+0x1e60>
    41e4:	42000204 	addi	r8,r8,8
    41e8:	0463c83a 	sub	r17,zero,r17
    41ec:	0440730e 	bge	zero,r17,43bc <___vfprintf_internal_r+0x1bb4>
    41f0:	05800404 	movi	r22,16
    41f4:	b440860e 	bge	r22,r17,4410 <___vfprintf_internal_r+0x1c08>
    41f8:	01400074 	movhi	r5,1
    41fc:	29451a84 	addi	r5,r5,5226
    4200:	d9402b15 	stw	r5,172(sp)
    4204:	070001c4 	movi	fp,7
    4208:	dcc02c17 	ldw	r19,176(sp)
    420c:	00000306 	br	421c <___vfprintf_internal_r+0x1a14>
    4210:	42000204 	addi	r8,r8,8
    4214:	8c7ffc04 	addi	r17,r17,-16
    4218:	b440800e 	bge	r22,r17,441c <___vfprintf_internal_r+0x1c14>
    421c:	18c00404 	addi	r3,r3,16
    4220:	10800044 	addi	r2,r2,1
    4224:	45000015 	stw	r20,0(r8)
    4228:	45800115 	stw	r22,4(r8)
    422c:	d8c02015 	stw	r3,128(sp)
    4230:	d8801f15 	stw	r2,124(sp)
    4234:	e0bff60e 	bge	fp,r2,4210 <__alt_data_end+0xff004210>
    4238:	d9801e04 	addi	r6,sp,120
    423c:	b80b883a 	mov	r5,r23
    4240:	9809883a 	mov	r4,r19
    4244:	00095a40 	call	95a4 <__sprint_r>
    4248:	103a711e 	bne	r2,zero,2c10 <__alt_data_end+0xff002c10>
    424c:	d8c02017 	ldw	r3,128(sp)
    4250:	d8801f17 	ldw	r2,124(sp)
    4254:	da000404 	addi	r8,sp,16
    4258:	003fee06 	br	4214 <__alt_data_end+0xff004214>
    425c:	00bfffc4 	movi	r2,-1
    4260:	003a6f06 	br	2c20 <__alt_data_end+0xff002c20>
    4264:	008011c4 	movi	r2,71
    4268:	1440b816 	blt	r2,r17,454c <___vfprintf_internal_r+0x1d44>
    426c:	04000074 	movhi	r16,1
    4270:	84050c04 	addi	r16,r16,5168
    4274:	00c000c4 	movi	r3,3
    4278:	00bfdfc4 	movi	r2,-129
    427c:	d8c02a15 	stw	r3,168(sp)
    4280:	90a4703a 	and	r18,r18,r2
    4284:	df002783 	ldbu	fp,158(sp)
    4288:	d8c02e15 	stw	r3,184(sp)
    428c:	d8002915 	stw	zero,164(sp)
    4290:	d8003215 	stw	zero,200(sp)
    4294:	003b2906 	br	2f3c <__alt_data_end+0xff002f3c>
    4298:	d9002d17 	ldw	r4,180(sp)
    429c:	24c00017 	ldw	r19,0(r4)
    42a0:	21000104 	addi	r4,r4,4
    42a4:	d9002d15 	stw	r4,180(sp)
    42a8:	982dd7fa 	srai	r22,r19,31
    42ac:	b005883a 	mov	r2,r22
    42b0:	003a9f06 	br	2d30 <__alt_data_end+0xff002d30>
    42b4:	d9402d17 	ldw	r5,180(sp)
    42b8:	d8c02f17 	ldw	r3,188(sp)
    42bc:	28800017 	ldw	r2,0(r5)
    42c0:	29400104 	addi	r5,r5,4
    42c4:	d9402d15 	stw	r5,180(sp)
    42c8:	10c00015 	stw	r3,0(r2)
    42cc:	00398606 	br	28e8 <__alt_data_end+0xff0028e8>
    42d0:	d9402d17 	ldw	r5,180(sp)
    42d4:	002d883a 	mov	r22,zero
    42d8:	2cc00017 	ldw	r19,0(r5)
    42dc:	29400104 	addi	r5,r5,4
    42e0:	d9402d15 	stw	r5,180(sp)
    42e4:	003c2306 	br	3374 <__alt_data_end+0xff003374>
    42e8:	d8c02d17 	ldw	r3,180(sp)
    42ec:	d9002917 	ldw	r4,164(sp)
    42f0:	002d883a 	mov	r22,zero
    42f4:	18800104 	addi	r2,r3,4
    42f8:	1cc0000b 	ldhu	r19,0(r3)
    42fc:	203dc10e 	bge	r4,zero,3a04 <__alt_data_end+0xff003a04>
    4300:	003f7506 	br	40d8 <__alt_data_end+0xff0040d8>
    4304:	04000074 	movhi	r16,1
    4308:	84050a04 	addi	r16,r16,5160
    430c:	003acc06 	br	2e40 <__alt_data_end+0xff002e40>
    4310:	d9002c17 	ldw	r4,176(sp)
    4314:	d9801e04 	addi	r6,sp,120
    4318:	b80b883a 	mov	r5,r23
    431c:	00095a40 	call	95a4 <__sprint_r>
    4320:	103a3b1e 	bne	r2,zero,2c10 <__alt_data_end+0xff002c10>
    4324:	dc402617 	ldw	r17,152(sp)
    4328:	d8c02017 	ldw	r3,128(sp)
    432c:	da000404 	addi	r8,sp,16
    4330:	003f9c06 	br	41a4 <__alt_data_end+0xff0041a4>
    4334:	ac400043 	ldbu	r17,1(r21)
    4338:	94800814 	ori	r18,r18,32
    433c:	ad400044 	addi	r21,r21,1
    4340:	8c403fcc 	andi	r17,r17,255
    4344:	8c40201c 	xori	r17,r17,128
    4348:	8c7fe004 	addi	r17,r17,-128
    434c:	00398f06 	br	298c <__alt_data_end+0xff00298c>
    4350:	d8c02d15 	stw	r3,180(sp)
    4354:	0039883a 	mov	fp,zero
    4358:	003e3506 	br	3c30 <__alt_data_end+0xff003c30>
    435c:	d9002c17 	ldw	r4,176(sp)
    4360:	d9801e04 	addi	r6,sp,120
    4364:	b80b883a 	mov	r5,r23
    4368:	00095a40 	call	95a4 <__sprint_r>
    436c:	103a281e 	bne	r2,zero,2c10 <__alt_data_end+0xff002c10>
    4370:	d8c02017 	ldw	r3,128(sp)
    4374:	da000404 	addi	r8,sp,16
    4378:	003cd006 	br	36bc <__alt_data_end+0xff0036bc>
    437c:	8009883a 	mov	r4,r16
    4380:	da003d15 	stw	r8,244(sp)
    4384:	00027700 	call	2770 <strlen>
    4388:	d8802e15 	stw	r2,184(sp)
    438c:	da003d17 	ldw	r8,244(sp)
    4390:	103c340e 	bge	r2,zero,3464 <__alt_data_end+0xff003464>
    4394:	0005883a 	mov	r2,zero
    4398:	003c3206 	br	3464 <__alt_data_end+0xff003464>
    439c:	d9002c17 	ldw	r4,176(sp)
    43a0:	d9801e04 	addi	r6,sp,120
    43a4:	b80b883a 	mov	r5,r23
    43a8:	00095a40 	call	95a4 <__sprint_r>
    43ac:	103a181e 	bne	r2,zero,2c10 <__alt_data_end+0xff002c10>
    43b0:	d8c02017 	ldw	r3,128(sp)
    43b4:	d8801f17 	ldw	r2,124(sp)
    43b8:	da000404 	addi	r8,sp,16
    43bc:	d9403317 	ldw	r5,204(sp)
    43c0:	10800044 	addi	r2,r2,1
    43c4:	44000015 	stw	r16,0(r8)
    43c8:	28c7883a 	add	r3,r5,r3
    43cc:	003b7d06 	br	31c4 <__alt_data_end+0xff0031c4>
    43d0:	01000074 	movhi	r4,1
    43d4:	21051e84 	addi	r4,r4,5242
    43d8:	d9003515 	stw	r4,212(sp)
    43dc:	003b1406 	br	3030 <__alt_data_end+0xff003030>
    43e0:	013fffc4 	movi	r4,-1
    43e4:	003a3506 	br	2cbc <__alt_data_end+0xff002cbc>
    43e8:	0023883a 	mov	r17,zero
    43ec:	003d9d06 	br	3a64 <__alt_data_end+0xff003a64>
    43f0:	d9002c17 	ldw	r4,176(sp)
    43f4:	d9801e04 	addi	r6,sp,120
    43f8:	b80b883a 	mov	r5,r23
    43fc:	00095a40 	call	95a4 <__sprint_r>
    4400:	103a031e 	bne	r2,zero,2c10 <__alt_data_end+0xff002c10>
    4404:	d8c02017 	ldw	r3,128(sp)
    4408:	da000404 	addi	r8,sp,16
    440c:	003d9406 	br	3a60 <__alt_data_end+0xff003a60>
    4410:	01000074 	movhi	r4,1
    4414:	21051a84 	addi	r4,r4,5226
    4418:	d9002b15 	stw	r4,172(sp)
    441c:	d9002b17 	ldw	r4,172(sp)
    4420:	1c47883a 	add	r3,r3,r17
    4424:	10800044 	addi	r2,r2,1
    4428:	41000015 	stw	r4,0(r8)
    442c:	44400115 	stw	r17,4(r8)
    4430:	d8c02015 	stw	r3,128(sp)
    4434:	d8801f15 	stw	r2,124(sp)
    4438:	010001c4 	movi	r4,7
    443c:	20bfd716 	blt	r4,r2,439c <__alt_data_end+0xff00439c>
    4440:	42000204 	addi	r8,r8,8
    4444:	003fdd06 	br	43bc <__alt_data_end+0xff0043bc>
    4448:	d9002c17 	ldw	r4,176(sp)
    444c:	d9801e04 	addi	r6,sp,120
    4450:	b80b883a 	mov	r5,r23
    4454:	00095a40 	call	95a4 <__sprint_r>
    4458:	1039ed1e 	bne	r2,zero,2c10 <__alt_data_end+0xff002c10>
    445c:	d8802617 	ldw	r2,152(sp)
    4460:	d8c02017 	ldw	r3,128(sp)
    4464:	da000404 	addi	r8,sp,16
    4468:	003e1006 	br	3cac <__alt_data_end+0xff003cac>
    446c:	00800044 	movi	r2,1
    4470:	10803fcc 	andi	r2,r2,255
    4474:	00c00044 	movi	r3,1
    4478:	10fa3526 	beq	r2,r3,2d50 <__alt_data_end+0xff002d50>
    447c:	00c00084 	movi	r3,2
    4480:	10fbcb26 	beq	r2,r3,33b0 <__alt_data_end+0xff0033b0>
    4484:	003a8f06 	br	2ec4 <__alt_data_end+0xff002ec4>
    4488:	01000074 	movhi	r4,1
    448c:	21051e84 	addi	r4,r4,5242
    4490:	d9003515 	stw	r4,212(sp)
    4494:	003b7606 	br	3270 <__alt_data_end+0xff003270>
    4498:	d8802917 	ldw	r2,164(sp)
    449c:	00c00184 	movi	r3,6
    44a0:	1880012e 	bgeu	r3,r2,44a8 <___vfprintf_internal_r+0x1ca0>
    44a4:	1805883a 	mov	r2,r3
    44a8:	d8802e15 	stw	r2,184(sp)
    44ac:	1000ef16 	blt	r2,zero,486c <___vfprintf_internal_r+0x2064>
    44b0:	04000074 	movhi	r16,1
    44b4:	d8802a15 	stw	r2,168(sp)
    44b8:	dcc02d15 	stw	r19,180(sp)
    44bc:	d8002915 	stw	zero,164(sp)
    44c0:	d8003215 	stw	zero,200(sp)
    44c4:	84051804 	addi	r16,r16,5216
    44c8:	0039883a 	mov	fp,zero
    44cc:	003aa206 	br	2f58 <__alt_data_end+0xff002f58>
    44d0:	0021883a 	mov	r16,zero
    44d4:	003e0706 	br	3cf4 <__alt_data_end+0xff003cf4>
    44d8:	d9002c17 	ldw	r4,176(sp)
    44dc:	d9801e04 	addi	r6,sp,120
    44e0:	b80b883a 	mov	r5,r23
    44e4:	00095a40 	call	95a4 <__sprint_r>
    44e8:	1039c91e 	bne	r2,zero,2c10 <__alt_data_end+0xff002c10>
    44ec:	d8802617 	ldw	r2,152(sp)
    44f0:	d9403317 	ldw	r5,204(sp)
    44f4:	d8c02017 	ldw	r3,128(sp)
    44f8:	da000404 	addi	r8,sp,16
    44fc:	2885c83a 	sub	r2,r5,r2
    4500:	003dfb06 	br	3cf0 <__alt_data_end+0xff003cf0>
    4504:	9080004c 	andi	r2,r18,1
    4508:	103e8f1e 	bne	r2,zero,3f48 <__alt_data_end+0xff003f48>
    450c:	d8802117 	ldw	r2,132(sp)
    4510:	003e9e06 	br	3f8c <__alt_data_end+0xff003f8c>
    4514:	1025883a 	mov	r18,r2
    4518:	0039883a 	mov	fp,zero
    451c:	00800084 	movi	r2,2
    4520:	003fd306 	br	4470 <__alt_data_end+0xff004470>
    4524:	07000b44 	movi	fp,45
    4528:	df002785 	stb	fp,158(sp)
    452c:	003a4006 	br	2e30 <__alt_data_end+0xff002e30>
    4530:	00c00b44 	movi	r3,45
    4534:	d8c02785 	stb	r3,158(sp)
    4538:	d8802a15 	stw	r2,168(sp)
    453c:	dc802b17 	ldw	r18,172(sp)
    4540:	d8002915 	stw	zero,164(sp)
    4544:	07000b44 	movi	fp,45
    4548:	003a8006 	br	2f4c <__alt_data_end+0xff002f4c>
    454c:	04000074 	movhi	r16,1
    4550:	84050d04 	addi	r16,r16,5172
    4554:	003f4706 	br	4274 <__alt_data_end+0xff004274>
    4558:	d8c02d17 	ldw	r3,180(sp)
    455c:	d9002f17 	ldw	r4,188(sp)
    4560:	18800017 	ldw	r2,0(r3)
    4564:	18c00104 	addi	r3,r3,4
    4568:	d8c02d15 	stw	r3,180(sp)
    456c:	11000015 	stw	r4,0(r2)
    4570:	0038dd06 	br	28e8 <__alt_data_end+0xff0028e8>
    4574:	dd802617 	ldw	r22,152(sp)
    4578:	00bfff44 	movi	r2,-3
    457c:	b0801c16 	blt	r22,r2,45f0 <___vfprintf_internal_r+0x1de8>
    4580:	d9402917 	ldw	r5,164(sp)
    4584:	2d801a16 	blt	r5,r22,45f0 <___vfprintf_internal_r+0x1de8>
    4588:	dd803215 	stw	r22,200(sp)
    458c:	003e8906 	br	3fb4 <__alt_data_end+0xff003fb4>
    4590:	01000074 	movhi	r4,1
    4594:	21051a84 	addi	r4,r4,5226
    4598:	d9002b15 	stw	r4,172(sp)
    459c:	003c9106 	br	37e4 <__alt_data_end+0xff0037e4>
    45a0:	e005883a 	mov	r2,fp
    45a4:	003e7906 	br	3f8c <__alt_data_end+0xff003f8c>
    45a8:	d9402917 	ldw	r5,164(sp)
    45ac:	df002783 	ldbu	fp,158(sp)
    45b0:	dcc02d15 	stw	r19,180(sp)
    45b4:	d9402a15 	stw	r5,168(sp)
    45b8:	d9402e15 	stw	r5,184(sp)
    45bc:	d8002915 	stw	zero,164(sp)
    45c0:	d8003215 	stw	zero,200(sp)
    45c4:	003a5d06 	br	2f3c <__alt_data_end+0xff002f3c>
    45c8:	9080004c 	andi	r2,r18,1
    45cc:	0039883a 	mov	fp,zero
    45d0:	10000426 	beq	r2,zero,45e4 <___vfprintf_internal_r+0x1ddc>
    45d4:	00800c04 	movi	r2,48
    45d8:	dc001dc4 	addi	r16,sp,119
    45dc:	d8801dc5 	stb	r2,119(sp)
    45e0:	003b8006 	br	33e4 <__alt_data_end+0xff0033e4>
    45e4:	d8002e15 	stw	zero,184(sp)
    45e8:	dc001e04 	addi	r16,sp,120
    45ec:	003a4d06 	br	2f24 <__alt_data_end+0xff002f24>
    45f0:	8c7fff84 	addi	r17,r17,-2
    45f4:	b5bfffc4 	addi	r22,r22,-1
    45f8:	dd802615 	stw	r22,152(sp)
    45fc:	dc4022c5 	stb	r17,139(sp)
    4600:	b000bf16 	blt	r22,zero,4900 <___vfprintf_internal_r+0x20f8>
    4604:	00800ac4 	movi	r2,43
    4608:	d8802305 	stb	r2,140(sp)
    460c:	00800244 	movi	r2,9
    4610:	15807016 	blt	r2,r22,47d4 <___vfprintf_internal_r+0x1fcc>
    4614:	00800c04 	movi	r2,48
    4618:	b5800c04 	addi	r22,r22,48
    461c:	d8802345 	stb	r2,141(sp)
    4620:	dd802385 	stb	r22,142(sp)
    4624:	d88023c4 	addi	r2,sp,143
    4628:	df0022c4 	addi	fp,sp,139
    462c:	d8c03317 	ldw	r3,204(sp)
    4630:	1739c83a 	sub	fp,r2,fp
    4634:	d9003317 	ldw	r4,204(sp)
    4638:	e0c7883a 	add	r3,fp,r3
    463c:	df003a15 	stw	fp,232(sp)
    4640:	d8c02e15 	stw	r3,184(sp)
    4644:	00800044 	movi	r2,1
    4648:	1100b30e 	bge	r2,r4,4918 <___vfprintf_internal_r+0x2110>
    464c:	d8c02e17 	ldw	r3,184(sp)
    4650:	18c00044 	addi	r3,r3,1
    4654:	d8c02e15 	stw	r3,184(sp)
    4658:	1805883a 	mov	r2,r3
    465c:	1800ac16 	blt	r3,zero,4910 <___vfprintf_internal_r+0x2108>
    4660:	d8003215 	stw	zero,200(sp)
    4664:	003e5d06 	br	3fdc <__alt_data_end+0xff003fdc>
    4668:	d9002c17 	ldw	r4,176(sp)
    466c:	d9801e04 	addi	r6,sp,120
    4670:	b80b883a 	mov	r5,r23
    4674:	00095a40 	call	95a4 <__sprint_r>
    4678:	1039651e 	bne	r2,zero,2c10 <__alt_data_end+0xff002c10>
    467c:	dc402617 	ldw	r17,152(sp)
    4680:	d8c02017 	ldw	r3,128(sp)
    4684:	d8801f17 	ldw	r2,124(sp)
    4688:	da000404 	addi	r8,sp,16
    468c:	003ed606 	br	41e8 <__alt_data_end+0xff0041e8>
    4690:	582b883a 	mov	r21,r11
    4694:	d8002915 	stw	zero,164(sp)
    4698:	0038bd06 	br	2990 <__alt_data_end+0xff002990>
    469c:	d8802917 	ldw	r2,164(sp)
    46a0:	103e071e 	bne	r2,zero,3ec0 <__alt_data_end+0xff003ec0>
    46a4:	dc002915 	stw	r16,164(sp)
    46a8:	003e0506 	br	3ec0 <__alt_data_end+0xff003ec0>
    46ac:	d9002917 	ldw	r4,164(sp)
    46b0:	20c00044 	addi	r3,r4,1
    46b4:	003e0f06 	br	3ef4 <__alt_data_end+0xff003ef4>
    46b8:	01400184 	movi	r5,6
    46bc:	d9402915 	stw	r5,164(sp)
    46c0:	003dff06 	br	3ec0 <__alt_data_end+0xff003ec0>
    46c4:	d8802104 	addi	r2,sp,132
    46c8:	d8800315 	stw	r2,12(sp)
    46cc:	d8802504 	addi	r2,sp,148
    46d0:	d8800215 	stw	r2,8(sp)
    46d4:	d8802604 	addi	r2,sp,152
    46d8:	d8800115 	stw	r2,4(sp)
    46dc:	d8802917 	ldw	r2,164(sp)
    46e0:	d9403617 	ldw	r5,216(sp)
    46e4:	d9002c17 	ldw	r4,176(sp)
    46e8:	d8800015 	stw	r2,0(sp)
    46ec:	01c000c4 	movi	r7,3
    46f0:	980d883a 	mov	r6,r19
    46f4:	da003d15 	stw	r8,244(sp)
    46f8:	0004e2c0 	call	4e2c <_dtoa_r>
    46fc:	d8c02917 	ldw	r3,164(sp)
    4700:	da003d17 	ldw	r8,244(sp)
    4704:	1021883a 	mov	r16,r2
    4708:	10f9883a 	add	fp,r2,r3
    470c:	81000007 	ldb	r4,0(r16)
    4710:	00800c04 	movi	r2,48
    4714:	20805e26 	beq	r4,r2,4890 <___vfprintf_internal_r+0x2088>
    4718:	d8c02617 	ldw	r3,152(sp)
    471c:	e0f9883a 	add	fp,fp,r3
    4720:	003e0a06 	br	3f4c <__alt_data_end+0xff003f4c>
    4724:	00c00b44 	movi	r3,45
    4728:	24e0003c 	xorhi	r19,r4,32768
    472c:	d8c02a05 	stb	r3,168(sp)
    4730:	003de906 	br	3ed8 <__alt_data_end+0xff003ed8>
    4734:	d8c03217 	ldw	r3,200(sp)
    4738:	00c07a0e 	bge	zero,r3,4924 <___vfprintf_internal_r+0x211c>
    473c:	00800044 	movi	r2,1
    4740:	d9003317 	ldw	r4,204(sp)
    4744:	1105883a 	add	r2,r2,r4
    4748:	d8802e15 	stw	r2,184(sp)
    474c:	10004e16 	blt	r2,zero,4888 <___vfprintf_internal_r+0x2080>
    4750:	044019c4 	movi	r17,103
    4754:	003e2106 	br	3fdc <__alt_data_end+0xff003fdc>
    4758:	d9002917 	ldw	r4,164(sp)
    475c:	d8802104 	addi	r2,sp,132
    4760:	d8800315 	stw	r2,12(sp)
    4764:	d9000015 	stw	r4,0(sp)
    4768:	d8802504 	addi	r2,sp,148
    476c:	d9403617 	ldw	r5,216(sp)
    4770:	d9002c17 	ldw	r4,176(sp)
    4774:	d8800215 	stw	r2,8(sp)
    4778:	d8802604 	addi	r2,sp,152
    477c:	d8800115 	stw	r2,4(sp)
    4780:	01c000c4 	movi	r7,3
    4784:	980d883a 	mov	r6,r19
    4788:	da003d15 	stw	r8,244(sp)
    478c:	0004e2c0 	call	4e2c <_dtoa_r>
    4790:	d8c02917 	ldw	r3,164(sp)
    4794:	da003d17 	ldw	r8,244(sp)
    4798:	1021883a 	mov	r16,r2
    479c:	00801184 	movi	r2,70
    47a0:	80f9883a 	add	fp,r16,r3
    47a4:	88bfd926 	beq	r17,r2,470c <__alt_data_end+0xff00470c>
    47a8:	003de806 	br	3f4c <__alt_data_end+0xff003f4c>
    47ac:	d9002917 	ldw	r4,164(sp)
    47b0:	00c04d0e 	bge	zero,r3,48e8 <___vfprintf_internal_r+0x20e0>
    47b4:	2000441e 	bne	r4,zero,48c8 <___vfprintf_internal_r+0x20c0>
    47b8:	9480004c 	andi	r18,r18,1
    47bc:	9000421e 	bne	r18,zero,48c8 <___vfprintf_internal_r+0x20c0>
    47c0:	1805883a 	mov	r2,r3
    47c4:	18007016 	blt	r3,zero,4988 <___vfprintf_internal_r+0x2180>
    47c8:	d8c03217 	ldw	r3,200(sp)
    47cc:	d8c02e15 	stw	r3,184(sp)
    47d0:	003e0206 	br	3fdc <__alt_data_end+0xff003fdc>
    47d4:	df0022c4 	addi	fp,sp,139
    47d8:	dc002915 	stw	r16,164(sp)
    47dc:	4027883a 	mov	r19,r8
    47e0:	e021883a 	mov	r16,fp
    47e4:	b009883a 	mov	r4,r22
    47e8:	01400284 	movi	r5,10
    47ec:	0001c780 	call	1c78 <__modsi3>
    47f0:	10800c04 	addi	r2,r2,48
    47f4:	843fffc4 	addi	r16,r16,-1
    47f8:	b009883a 	mov	r4,r22
    47fc:	01400284 	movi	r5,10
    4800:	80800005 	stb	r2,0(r16)
    4804:	0001bf40 	call	1bf4 <__divsi3>
    4808:	102d883a 	mov	r22,r2
    480c:	00800244 	movi	r2,9
    4810:	15bff416 	blt	r2,r22,47e4 <__alt_data_end+0xff0047e4>
    4814:	9811883a 	mov	r8,r19
    4818:	b0800c04 	addi	r2,r22,48
    481c:	8027883a 	mov	r19,r16
    4820:	997fffc4 	addi	r5,r19,-1
    4824:	98bfffc5 	stb	r2,-1(r19)
    4828:	dc002917 	ldw	r16,164(sp)
    482c:	2f006a2e 	bgeu	r5,fp,49d8 <___vfprintf_internal_r+0x21d0>
    4830:	d9c02384 	addi	r7,sp,142
    4834:	3ccfc83a 	sub	r7,r7,r19
    4838:	d9002344 	addi	r4,sp,141
    483c:	e1cf883a 	add	r7,fp,r7
    4840:	00000106 	br	4848 <___vfprintf_internal_r+0x2040>
    4844:	28800003 	ldbu	r2,0(r5)
    4848:	20800005 	stb	r2,0(r4)
    484c:	21000044 	addi	r4,r4,1
    4850:	29400044 	addi	r5,r5,1
    4854:	393ffb1e 	bne	r7,r4,4844 <__alt_data_end+0xff004844>
    4858:	d8802304 	addi	r2,sp,140
    485c:	14c5c83a 	sub	r2,r2,r19
    4860:	d8c02344 	addi	r3,sp,141
    4864:	1885883a 	add	r2,r3,r2
    4868:	003f7006 	br	462c <__alt_data_end+0xff00462c>
    486c:	0005883a 	mov	r2,zero
    4870:	003f0f06 	br	44b0 <__alt_data_end+0xff0044b0>
    4874:	d8c03217 	ldw	r3,200(sp)
    4878:	18c00044 	addi	r3,r3,1
    487c:	d8c02e15 	stw	r3,184(sp)
    4880:	1805883a 	mov	r2,r3
    4884:	183fb20e 	bge	r3,zero,4750 <__alt_data_end+0xff004750>
    4888:	0005883a 	mov	r2,zero
    488c:	003fb006 	br	4750 <__alt_data_end+0xff004750>
    4890:	d9003617 	ldw	r4,216(sp)
    4894:	000d883a 	mov	r6,zero
    4898:	000f883a 	mov	r7,zero
    489c:	980b883a 	mov	r5,r19
    48a0:	d8c03c15 	stw	r3,240(sp)
    48a4:	da003d15 	stw	r8,244(sp)
    48a8:	000d0680 	call	d068 <__eqdf2>
    48ac:	d8c03c17 	ldw	r3,240(sp)
    48b0:	da003d17 	ldw	r8,244(sp)
    48b4:	103f9826 	beq	r2,zero,4718 <__alt_data_end+0xff004718>
    48b8:	00800044 	movi	r2,1
    48bc:	10c7c83a 	sub	r3,r2,r3
    48c0:	d8c02615 	stw	r3,152(sp)
    48c4:	003f9506 	br	471c <__alt_data_end+0xff00471c>
    48c8:	d9002917 	ldw	r4,164(sp)
    48cc:	d8c03217 	ldw	r3,200(sp)
    48d0:	20800044 	addi	r2,r4,1
    48d4:	1885883a 	add	r2,r3,r2
    48d8:	d8802e15 	stw	r2,184(sp)
    48dc:	103dbf0e 	bge	r2,zero,3fdc <__alt_data_end+0xff003fdc>
    48e0:	0005883a 	mov	r2,zero
    48e4:	003dbd06 	br	3fdc <__alt_data_end+0xff003fdc>
    48e8:	2000211e 	bne	r4,zero,4970 <___vfprintf_internal_r+0x2168>
    48ec:	9480004c 	andi	r18,r18,1
    48f0:	90001f1e 	bne	r18,zero,4970 <___vfprintf_internal_r+0x2168>
    48f4:	00800044 	movi	r2,1
    48f8:	d8802e15 	stw	r2,184(sp)
    48fc:	003db706 	br	3fdc <__alt_data_end+0xff003fdc>
    4900:	00800b44 	movi	r2,45
    4904:	05adc83a 	sub	r22,zero,r22
    4908:	d8802305 	stb	r2,140(sp)
    490c:	003f3f06 	br	460c <__alt_data_end+0xff00460c>
    4910:	0005883a 	mov	r2,zero
    4914:	003f5206 	br	4660 <__alt_data_end+0xff004660>
    4918:	90a4703a 	and	r18,r18,r2
    491c:	903f4e26 	beq	r18,zero,4658 <__alt_data_end+0xff004658>
    4920:	003f4a06 	br	464c <__alt_data_end+0xff00464c>
    4924:	00800084 	movi	r2,2
    4928:	10c5c83a 	sub	r2,r2,r3
    492c:	003f8406 	br	4740 <__alt_data_end+0xff004740>
    4930:	d8802d17 	ldw	r2,180(sp)
    4934:	d9002d17 	ldw	r4,180(sp)
    4938:	ac400043 	ldbu	r17,1(r21)
    493c:	10800017 	ldw	r2,0(r2)
    4940:	582b883a 	mov	r21,r11
    4944:	d8802915 	stw	r2,164(sp)
    4948:	20800104 	addi	r2,r4,4
    494c:	d9002917 	ldw	r4,164(sp)
    4950:	d8802d15 	stw	r2,180(sp)
    4954:	203e7a0e 	bge	r4,zero,4340 <__alt_data_end+0xff004340>
    4958:	8c403fcc 	andi	r17,r17,255
    495c:	00bfffc4 	movi	r2,-1
    4960:	8c40201c 	xori	r17,r17,128
    4964:	d8802915 	stw	r2,164(sp)
    4968:	8c7fe004 	addi	r17,r17,-128
    496c:	00380706 	br	298c <__alt_data_end+0xff00298c>
    4970:	d8c02917 	ldw	r3,164(sp)
    4974:	18c00084 	addi	r3,r3,2
    4978:	d8c02e15 	stw	r3,184(sp)
    497c:	1805883a 	mov	r2,r3
    4980:	183d960e 	bge	r3,zero,3fdc <__alt_data_end+0xff003fdc>
    4984:	003fd606 	br	48e0 <__alt_data_end+0xff0048e0>
    4988:	0005883a 	mov	r2,zero
    498c:	003f8e06 	br	47c8 <__alt_data_end+0xff0047c8>
    4990:	9080004c 	andi	r2,r18,1
    4994:	103f811e 	bne	r2,zero,479c <__alt_data_end+0xff00479c>
    4998:	d8802117 	ldw	r2,132(sp)
    499c:	1405c83a 	sub	r2,r2,r16
    49a0:	d8803315 	stw	r2,204(sp)
    49a4:	b47ef326 	beq	r22,r17,4574 <__alt_data_end+0xff004574>
    49a8:	dd802617 	ldw	r22,152(sp)
    49ac:	003f1106 	br	45f4 <__alt_data_end+0xff0045f4>
    49b0:	d9c02785 	stb	r7,158(sp)
    49b4:	00390406 	br	2dc8 <__alt_data_end+0xff002dc8>
    49b8:	d9c02785 	stb	r7,158(sp)
    49bc:	0038d306 	br	2d0c <__alt_data_end+0xff002d0c>
    49c0:	d9c02785 	stb	r7,158(sp)
    49c4:	003a6106 	br	334c <__alt_data_end+0xff00334c>
    49c8:	d9c02785 	stb	r7,158(sp)
    49cc:	003af806 	br	35b0 <__alt_data_end+0xff0035b0>
    49d0:	0005883a 	mov	r2,zero
    49d4:	003d7e06 	br	3fd0 <__alt_data_end+0xff003fd0>
    49d8:	d8802344 	addi	r2,sp,141
    49dc:	003f1306 	br	462c <__alt_data_end+0xff00462c>
    49e0:	d9c02785 	stb	r7,158(sp)
    49e4:	00392306 	br	2e74 <__alt_data_end+0xff002e74>
    49e8:	d9c02785 	stb	r7,158(sp)
    49ec:	003aa906 	br	3494 <__alt_data_end+0xff003494>
    49f0:	d9c02785 	stb	r7,158(sp)
    49f4:	003a3d06 	br	32ec <__alt_data_end+0xff0032ec>
    49f8:	d9c02785 	stb	r7,158(sp)
    49fc:	003aca06 	br	3528 <__alt_data_end+0xff003528>

00004a00 <__vfprintf_internal>:
    4a00:	00800074 	movhi	r2,1
    4a04:	108c7504 	addi	r2,r2,12756
    4a08:	300f883a 	mov	r7,r6
    4a0c:	280d883a 	mov	r6,r5
    4a10:	200b883a 	mov	r5,r4
    4a14:	11000017 	ldw	r4,0(r2)
    4a18:	00028081 	jmpi	2808 <___vfprintf_internal_r>

00004a1c <__sbprintf>:
    4a1c:	2880030b 	ldhu	r2,12(r5)
    4a20:	2ac01917 	ldw	r11,100(r5)
    4a24:	2a80038b 	ldhu	r10,14(r5)
    4a28:	2a400717 	ldw	r9,28(r5)
    4a2c:	2a000917 	ldw	r8,36(r5)
    4a30:	defee204 	addi	sp,sp,-1144
    4a34:	00c10004 	movi	r3,1024
    4a38:	dc011a15 	stw	r16,1128(sp)
    4a3c:	10bfff4c 	andi	r2,r2,65533
    4a40:	2821883a 	mov	r16,r5
    4a44:	d8cb883a 	add	r5,sp,r3
    4a48:	dc811c15 	stw	r18,1136(sp)
    4a4c:	dc411b15 	stw	r17,1132(sp)
    4a50:	dfc11d15 	stw	ra,1140(sp)
    4a54:	2025883a 	mov	r18,r4
    4a58:	d881030d 	sth	r2,1036(sp)
    4a5c:	dac11915 	stw	r11,1124(sp)
    4a60:	da81038d 	sth	r10,1038(sp)
    4a64:	da410715 	stw	r9,1052(sp)
    4a68:	da010915 	stw	r8,1060(sp)
    4a6c:	dec10015 	stw	sp,1024(sp)
    4a70:	dec10415 	stw	sp,1040(sp)
    4a74:	d8c10215 	stw	r3,1032(sp)
    4a78:	d8c10515 	stw	r3,1044(sp)
    4a7c:	d8010615 	stw	zero,1048(sp)
    4a80:	00028080 	call	2808 <___vfprintf_internal_r>
    4a84:	1023883a 	mov	r17,r2
    4a88:	10000416 	blt	r2,zero,4a9c <__sbprintf+0x80>
    4a8c:	d9410004 	addi	r5,sp,1024
    4a90:	9009883a 	mov	r4,r18
    4a94:	00066d00 	call	66d0 <_fflush_r>
    4a98:	10000d1e 	bne	r2,zero,4ad0 <__sbprintf+0xb4>
    4a9c:	d881030b 	ldhu	r2,1036(sp)
    4aa0:	1080100c 	andi	r2,r2,64
    4aa4:	10000326 	beq	r2,zero,4ab4 <__sbprintf+0x98>
    4aa8:	8080030b 	ldhu	r2,12(r16)
    4aac:	10801014 	ori	r2,r2,64
    4ab0:	8080030d 	sth	r2,12(r16)
    4ab4:	8805883a 	mov	r2,r17
    4ab8:	dfc11d17 	ldw	ra,1140(sp)
    4abc:	dc811c17 	ldw	r18,1136(sp)
    4ac0:	dc411b17 	ldw	r17,1132(sp)
    4ac4:	dc011a17 	ldw	r16,1128(sp)
    4ac8:	dec11e04 	addi	sp,sp,1144
    4acc:	f800283a 	ret
    4ad0:	047fffc4 	movi	r17,-1
    4ad4:	003ff106 	br	4a9c <__alt_data_end+0xff004a9c>

00004ad8 <__swsetup_r>:
    4ad8:	00800074 	movhi	r2,1
    4adc:	defffd04 	addi	sp,sp,-12
    4ae0:	108c7504 	addi	r2,r2,12756
    4ae4:	dc400115 	stw	r17,4(sp)
    4ae8:	2023883a 	mov	r17,r4
    4aec:	11000017 	ldw	r4,0(r2)
    4af0:	dc000015 	stw	r16,0(sp)
    4af4:	dfc00215 	stw	ra,8(sp)
    4af8:	2821883a 	mov	r16,r5
    4afc:	20000226 	beq	r4,zero,4b08 <__swsetup_r+0x30>
    4b00:	20800e17 	ldw	r2,56(r4)
    4b04:	10003126 	beq	r2,zero,4bcc <__swsetup_r+0xf4>
    4b08:	8080030b 	ldhu	r2,12(r16)
    4b0c:	10c0020c 	andi	r3,r2,8
    4b10:	1009883a 	mov	r4,r2
    4b14:	18000f26 	beq	r3,zero,4b54 <__swsetup_r+0x7c>
    4b18:	80c00417 	ldw	r3,16(r16)
    4b1c:	18001526 	beq	r3,zero,4b74 <__swsetup_r+0x9c>
    4b20:	1100004c 	andi	r4,r2,1
    4b24:	20001c1e 	bne	r4,zero,4b98 <__swsetup_r+0xc0>
    4b28:	1080008c 	andi	r2,r2,2
    4b2c:	1000291e 	bne	r2,zero,4bd4 <__swsetup_r+0xfc>
    4b30:	80800517 	ldw	r2,20(r16)
    4b34:	80800215 	stw	r2,8(r16)
    4b38:	18001c26 	beq	r3,zero,4bac <__swsetup_r+0xd4>
    4b3c:	0005883a 	mov	r2,zero
    4b40:	dfc00217 	ldw	ra,8(sp)
    4b44:	dc400117 	ldw	r17,4(sp)
    4b48:	dc000017 	ldw	r16,0(sp)
    4b4c:	dec00304 	addi	sp,sp,12
    4b50:	f800283a 	ret
    4b54:	2080040c 	andi	r2,r4,16
    4b58:	10002e26 	beq	r2,zero,4c14 <__swsetup_r+0x13c>
    4b5c:	2080010c 	andi	r2,r4,4
    4b60:	10001e1e 	bne	r2,zero,4bdc <__swsetup_r+0x104>
    4b64:	80c00417 	ldw	r3,16(r16)
    4b68:	20800214 	ori	r2,r4,8
    4b6c:	8080030d 	sth	r2,12(r16)
    4b70:	183feb1e 	bne	r3,zero,4b20 <__alt_data_end+0xff004b20>
    4b74:	1100a00c 	andi	r4,r2,640
    4b78:	01408004 	movi	r5,512
    4b7c:	217fe826 	beq	r4,r5,4b20 <__alt_data_end+0xff004b20>
    4b80:	800b883a 	mov	r5,r16
    4b84:	8809883a 	mov	r4,r17
    4b88:	00076500 	call	7650 <__smakebuf_r>
    4b8c:	8080030b 	ldhu	r2,12(r16)
    4b90:	80c00417 	ldw	r3,16(r16)
    4b94:	003fe206 	br	4b20 <__alt_data_end+0xff004b20>
    4b98:	80800517 	ldw	r2,20(r16)
    4b9c:	80000215 	stw	zero,8(r16)
    4ba0:	0085c83a 	sub	r2,zero,r2
    4ba4:	80800615 	stw	r2,24(r16)
    4ba8:	183fe41e 	bne	r3,zero,4b3c <__alt_data_end+0xff004b3c>
    4bac:	80c0030b 	ldhu	r3,12(r16)
    4bb0:	0005883a 	mov	r2,zero
    4bb4:	1900200c 	andi	r4,r3,128
    4bb8:	203fe126 	beq	r4,zero,4b40 <__alt_data_end+0xff004b40>
    4bbc:	18c01014 	ori	r3,r3,64
    4bc0:	80c0030d 	sth	r3,12(r16)
    4bc4:	00bfffc4 	movi	r2,-1
    4bc8:	003fdd06 	br	4b40 <__alt_data_end+0xff004b40>
    4bcc:	0006aac0 	call	6aac <__sinit>
    4bd0:	003fcd06 	br	4b08 <__alt_data_end+0xff004b08>
    4bd4:	0005883a 	mov	r2,zero
    4bd8:	003fd606 	br	4b34 <__alt_data_end+0xff004b34>
    4bdc:	81400c17 	ldw	r5,48(r16)
    4be0:	28000626 	beq	r5,zero,4bfc <__swsetup_r+0x124>
    4be4:	80801004 	addi	r2,r16,64
    4be8:	28800326 	beq	r5,r2,4bf8 <__swsetup_r+0x120>
    4bec:	8809883a 	mov	r4,r17
    4bf0:	0006c200 	call	6c20 <_free_r>
    4bf4:	8100030b 	ldhu	r4,12(r16)
    4bf8:	80000c15 	stw	zero,48(r16)
    4bfc:	80c00417 	ldw	r3,16(r16)
    4c00:	00bff6c4 	movi	r2,-37
    4c04:	1108703a 	and	r4,r2,r4
    4c08:	80000115 	stw	zero,4(r16)
    4c0c:	80c00015 	stw	r3,0(r16)
    4c10:	003fd506 	br	4b68 <__alt_data_end+0xff004b68>
    4c14:	00800244 	movi	r2,9
    4c18:	88800015 	stw	r2,0(r17)
    4c1c:	20801014 	ori	r2,r4,64
    4c20:	8080030d 	sth	r2,12(r16)
    4c24:	00bfffc4 	movi	r2,-1
    4c28:	003fc506 	br	4b40 <__alt_data_end+0xff004b40>

00004c2c <quorem>:
    4c2c:	defff704 	addi	sp,sp,-36
    4c30:	dc800215 	stw	r18,8(sp)
    4c34:	20800417 	ldw	r2,16(r4)
    4c38:	2c800417 	ldw	r18,16(r5)
    4c3c:	dfc00815 	stw	ra,32(sp)
    4c40:	ddc00715 	stw	r23,28(sp)
    4c44:	dd800615 	stw	r22,24(sp)
    4c48:	dd400515 	stw	r21,20(sp)
    4c4c:	dd000415 	stw	r20,16(sp)
    4c50:	dcc00315 	stw	r19,12(sp)
    4c54:	dc400115 	stw	r17,4(sp)
    4c58:	dc000015 	stw	r16,0(sp)
    4c5c:	14807116 	blt	r2,r18,4e24 <quorem+0x1f8>
    4c60:	94bfffc4 	addi	r18,r18,-1
    4c64:	94ad883a 	add	r22,r18,r18
    4c68:	b5ad883a 	add	r22,r22,r22
    4c6c:	2c400504 	addi	r17,r5,20
    4c70:	8da9883a 	add	r20,r17,r22
    4c74:	25400504 	addi	r21,r4,20
    4c78:	282f883a 	mov	r23,r5
    4c7c:	adad883a 	add	r22,r21,r22
    4c80:	a1400017 	ldw	r5,0(r20)
    4c84:	2021883a 	mov	r16,r4
    4c88:	b1000017 	ldw	r4,0(r22)
    4c8c:	29400044 	addi	r5,r5,1
    4c90:	0001cec0 	call	1cec <__udivsi3>
    4c94:	1027883a 	mov	r19,r2
    4c98:	10002c26 	beq	r2,zero,4d4c <quorem+0x120>
    4c9c:	a813883a 	mov	r9,r21
    4ca0:	880b883a 	mov	r5,r17
    4ca4:	0009883a 	mov	r4,zero
    4ca8:	000d883a 	mov	r6,zero
    4cac:	2a000017 	ldw	r8,0(r5)
    4cb0:	49c00017 	ldw	r7,0(r9)
    4cb4:	29400104 	addi	r5,r5,4
    4cb8:	40bfffcc 	andi	r2,r8,65535
    4cbc:	14c5383a 	mul	r2,r2,r19
    4cc0:	4010d43a 	srli	r8,r8,16
    4cc4:	38ffffcc 	andi	r3,r7,65535
    4cc8:	1105883a 	add	r2,r2,r4
    4ccc:	1008d43a 	srli	r4,r2,16
    4cd0:	44d1383a 	mul	r8,r8,r19
    4cd4:	198d883a 	add	r6,r3,r6
    4cd8:	10ffffcc 	andi	r3,r2,65535
    4cdc:	30c7c83a 	sub	r3,r6,r3
    4ce0:	380ed43a 	srli	r7,r7,16
    4ce4:	4105883a 	add	r2,r8,r4
    4ce8:	180dd43a 	srai	r6,r3,16
    4cec:	113fffcc 	andi	r4,r2,65535
    4cf0:	390fc83a 	sub	r7,r7,r4
    4cf4:	398d883a 	add	r6,r7,r6
    4cf8:	300e943a 	slli	r7,r6,16
    4cfc:	18ffffcc 	andi	r3,r3,65535
    4d00:	1008d43a 	srli	r4,r2,16
    4d04:	38ceb03a 	or	r7,r7,r3
    4d08:	49c00015 	stw	r7,0(r9)
    4d0c:	300dd43a 	srai	r6,r6,16
    4d10:	4a400104 	addi	r9,r9,4
    4d14:	a17fe52e 	bgeu	r20,r5,4cac <__alt_data_end+0xff004cac>
    4d18:	b0800017 	ldw	r2,0(r22)
    4d1c:	10000b1e 	bne	r2,zero,4d4c <quorem+0x120>
    4d20:	b0bfff04 	addi	r2,r22,-4
    4d24:	a880082e 	bgeu	r21,r2,4d48 <quorem+0x11c>
    4d28:	b0ffff17 	ldw	r3,-4(r22)
    4d2c:	18000326 	beq	r3,zero,4d3c <quorem+0x110>
    4d30:	00000506 	br	4d48 <quorem+0x11c>
    4d34:	10c00017 	ldw	r3,0(r2)
    4d38:	1800031e 	bne	r3,zero,4d48 <quorem+0x11c>
    4d3c:	10bfff04 	addi	r2,r2,-4
    4d40:	94bfffc4 	addi	r18,r18,-1
    4d44:	a8bffb36 	bltu	r21,r2,4d34 <__alt_data_end+0xff004d34>
    4d48:	84800415 	stw	r18,16(r16)
    4d4c:	b80b883a 	mov	r5,r23
    4d50:	8009883a 	mov	r4,r16
    4d54:	00085840 	call	8584 <__mcmp>
    4d58:	10002616 	blt	r2,zero,4df4 <quorem+0x1c8>
    4d5c:	9cc00044 	addi	r19,r19,1
    4d60:	a805883a 	mov	r2,r21
    4d64:	000b883a 	mov	r5,zero
    4d68:	11000017 	ldw	r4,0(r2)
    4d6c:	89800017 	ldw	r6,0(r17)
    4d70:	10800104 	addi	r2,r2,4
    4d74:	20ffffcc 	andi	r3,r4,65535
    4d78:	194b883a 	add	r5,r3,r5
    4d7c:	30ffffcc 	andi	r3,r6,65535
    4d80:	28c7c83a 	sub	r3,r5,r3
    4d84:	300cd43a 	srli	r6,r6,16
    4d88:	2008d43a 	srli	r4,r4,16
    4d8c:	180bd43a 	srai	r5,r3,16
    4d90:	18ffffcc 	andi	r3,r3,65535
    4d94:	2189c83a 	sub	r4,r4,r6
    4d98:	2149883a 	add	r4,r4,r5
    4d9c:	200c943a 	slli	r6,r4,16
    4da0:	8c400104 	addi	r17,r17,4
    4da4:	200bd43a 	srai	r5,r4,16
    4da8:	30c6b03a 	or	r3,r6,r3
    4dac:	10ffff15 	stw	r3,-4(r2)
    4db0:	a47fed2e 	bgeu	r20,r17,4d68 <__alt_data_end+0xff004d68>
    4db4:	9485883a 	add	r2,r18,r18
    4db8:	1085883a 	add	r2,r2,r2
    4dbc:	a887883a 	add	r3,r21,r2
    4dc0:	18800017 	ldw	r2,0(r3)
    4dc4:	10000b1e 	bne	r2,zero,4df4 <quorem+0x1c8>
    4dc8:	18bfff04 	addi	r2,r3,-4
    4dcc:	a880082e 	bgeu	r21,r2,4df0 <quorem+0x1c4>
    4dd0:	18ffff17 	ldw	r3,-4(r3)
    4dd4:	18000326 	beq	r3,zero,4de4 <quorem+0x1b8>
    4dd8:	00000506 	br	4df0 <quorem+0x1c4>
    4ddc:	10c00017 	ldw	r3,0(r2)
    4de0:	1800031e 	bne	r3,zero,4df0 <quorem+0x1c4>
    4de4:	10bfff04 	addi	r2,r2,-4
    4de8:	94bfffc4 	addi	r18,r18,-1
    4dec:	a8bffb36 	bltu	r21,r2,4ddc <__alt_data_end+0xff004ddc>
    4df0:	84800415 	stw	r18,16(r16)
    4df4:	9805883a 	mov	r2,r19
    4df8:	dfc00817 	ldw	ra,32(sp)
    4dfc:	ddc00717 	ldw	r23,28(sp)
    4e00:	dd800617 	ldw	r22,24(sp)
    4e04:	dd400517 	ldw	r21,20(sp)
    4e08:	dd000417 	ldw	r20,16(sp)
    4e0c:	dcc00317 	ldw	r19,12(sp)
    4e10:	dc800217 	ldw	r18,8(sp)
    4e14:	dc400117 	ldw	r17,4(sp)
    4e18:	dc000017 	ldw	r16,0(sp)
    4e1c:	dec00904 	addi	sp,sp,36
    4e20:	f800283a 	ret
    4e24:	0005883a 	mov	r2,zero
    4e28:	003ff306 	br	4df8 <__alt_data_end+0xff004df8>

00004e2c <_dtoa_r>:
    4e2c:	20801017 	ldw	r2,64(r4)
    4e30:	deffde04 	addi	sp,sp,-136
    4e34:	df002015 	stw	fp,128(sp)
    4e38:	dcc01b15 	stw	r19,108(sp)
    4e3c:	dc801a15 	stw	r18,104(sp)
    4e40:	dc401915 	stw	r17,100(sp)
    4e44:	dc001815 	stw	r16,96(sp)
    4e48:	dfc02115 	stw	ra,132(sp)
    4e4c:	ddc01f15 	stw	r23,124(sp)
    4e50:	dd801e15 	stw	r22,120(sp)
    4e54:	dd401d15 	stw	r21,116(sp)
    4e58:	dd001c15 	stw	r20,112(sp)
    4e5c:	d9c00315 	stw	r7,12(sp)
    4e60:	2039883a 	mov	fp,r4
    4e64:	3023883a 	mov	r17,r6
    4e68:	2825883a 	mov	r18,r5
    4e6c:	dc002417 	ldw	r16,144(sp)
    4e70:	3027883a 	mov	r19,r6
    4e74:	10000826 	beq	r2,zero,4e98 <_dtoa_r+0x6c>
    4e78:	21801117 	ldw	r6,68(r4)
    4e7c:	00c00044 	movi	r3,1
    4e80:	100b883a 	mov	r5,r2
    4e84:	1986983a 	sll	r3,r3,r6
    4e88:	11800115 	stw	r6,4(r2)
    4e8c:	10c00215 	stw	r3,8(r2)
    4e90:	0007d640 	call	7d64 <_Bfree>
    4e94:	e0001015 	stw	zero,64(fp)
    4e98:	88002e16 	blt	r17,zero,4f54 <_dtoa_r+0x128>
    4e9c:	80000015 	stw	zero,0(r16)
    4ea0:	889ffc2c 	andhi	r2,r17,32752
    4ea4:	00dffc34 	movhi	r3,32752
    4ea8:	10c01c26 	beq	r2,r3,4f1c <_dtoa_r+0xf0>
    4eac:	000d883a 	mov	r6,zero
    4eb0:	000f883a 	mov	r7,zero
    4eb4:	9009883a 	mov	r4,r18
    4eb8:	980b883a 	mov	r5,r19
    4ebc:	000d0680 	call	d068 <__eqdf2>
    4ec0:	10002b1e 	bne	r2,zero,4f70 <_dtoa_r+0x144>
    4ec4:	d9c02317 	ldw	r7,140(sp)
    4ec8:	00800044 	movi	r2,1
    4ecc:	38800015 	stw	r2,0(r7)
    4ed0:	d8802517 	ldw	r2,148(sp)
    4ed4:	10019e26 	beq	r2,zero,5550 <_dtoa_r+0x724>
    4ed8:	d8c02517 	ldw	r3,148(sp)
    4edc:	00800074 	movhi	r2,1
    4ee0:	10851a44 	addi	r2,r2,5225
    4ee4:	18800015 	stw	r2,0(r3)
    4ee8:	10bfffc4 	addi	r2,r2,-1
    4eec:	dfc02117 	ldw	ra,132(sp)
    4ef0:	df002017 	ldw	fp,128(sp)
    4ef4:	ddc01f17 	ldw	r23,124(sp)
    4ef8:	dd801e17 	ldw	r22,120(sp)
    4efc:	dd401d17 	ldw	r21,116(sp)
    4f00:	dd001c17 	ldw	r20,112(sp)
    4f04:	dcc01b17 	ldw	r19,108(sp)
    4f08:	dc801a17 	ldw	r18,104(sp)
    4f0c:	dc401917 	ldw	r17,100(sp)
    4f10:	dc001817 	ldw	r16,96(sp)
    4f14:	dec02204 	addi	sp,sp,136
    4f18:	f800283a 	ret
    4f1c:	d8c02317 	ldw	r3,140(sp)
    4f20:	0089c3c4 	movi	r2,9999
    4f24:	18800015 	stw	r2,0(r3)
    4f28:	90017726 	beq	r18,zero,5508 <_dtoa_r+0x6dc>
    4f2c:	00800074 	movhi	r2,1
    4f30:	10852604 	addi	r2,r2,5272
    4f34:	d9002517 	ldw	r4,148(sp)
    4f38:	203fec26 	beq	r4,zero,4eec <__alt_data_end+0xff004eec>
    4f3c:	10c000c7 	ldb	r3,3(r2)
    4f40:	1801781e 	bne	r3,zero,5524 <_dtoa_r+0x6f8>
    4f44:	10c000c4 	addi	r3,r2,3
    4f48:	d9802517 	ldw	r6,148(sp)
    4f4c:	30c00015 	stw	r3,0(r6)
    4f50:	003fe606 	br	4eec <__alt_data_end+0xff004eec>
    4f54:	04e00034 	movhi	r19,32768
    4f58:	9cffffc4 	addi	r19,r19,-1
    4f5c:	00800044 	movi	r2,1
    4f60:	8ce6703a 	and	r19,r17,r19
    4f64:	80800015 	stw	r2,0(r16)
    4f68:	9823883a 	mov	r17,r19
    4f6c:	003fcc06 	br	4ea0 <__alt_data_end+0xff004ea0>
    4f70:	d8800204 	addi	r2,sp,8
    4f74:	d8800015 	stw	r2,0(sp)
    4f78:	d9c00104 	addi	r7,sp,4
    4f7c:	900b883a 	mov	r5,r18
    4f80:	980d883a 	mov	r6,r19
    4f84:	e009883a 	mov	r4,fp
    4f88:	8820d53a 	srli	r16,r17,20
    4f8c:	00089500 	call	8950 <__d2b>
    4f90:	d8800915 	stw	r2,36(sp)
    4f94:	8001651e 	bne	r16,zero,552c <_dtoa_r+0x700>
    4f98:	dd800217 	ldw	r22,8(sp)
    4f9c:	dc000117 	ldw	r16,4(sp)
    4fa0:	00800804 	movi	r2,32
    4fa4:	b421883a 	add	r16,r22,r16
    4fa8:	80c10c84 	addi	r3,r16,1074
    4fac:	10c2d10e 	bge	r2,r3,5af4 <_dtoa_r+0xcc8>
    4fb0:	00801004 	movi	r2,64
    4fb4:	81010484 	addi	r4,r16,1042
    4fb8:	10c7c83a 	sub	r3,r2,r3
    4fbc:	9108d83a 	srl	r4,r18,r4
    4fc0:	88e2983a 	sll	r17,r17,r3
    4fc4:	2448b03a 	or	r4,r4,r17
    4fc8:	000e4300 	call	e430 <__floatunsidf>
    4fcc:	017f8434 	movhi	r5,65040
    4fd0:	01800044 	movi	r6,1
    4fd4:	1009883a 	mov	r4,r2
    4fd8:	194b883a 	add	r5,r3,r5
    4fdc:	843fffc4 	addi	r16,r16,-1
    4fe0:	d9801115 	stw	r6,68(sp)
    4fe4:	000d883a 	mov	r6,zero
    4fe8:	01cffe34 	movhi	r7,16376
    4fec:	000d9d80 	call	d9d8 <__subdf3>
    4ff0:	0198dbf4 	movhi	r6,25455
    4ff4:	01cff4f4 	movhi	r7,16339
    4ff8:	3190d844 	addi	r6,r6,17249
    4ffc:	39e1e9c4 	addi	r7,r7,-30809
    5000:	1009883a 	mov	r4,r2
    5004:	180b883a 	mov	r5,r3
    5008:	000d2c00 	call	d2c0 <__muldf3>
    500c:	01a2d874 	movhi	r6,35681
    5010:	01cff1f4 	movhi	r7,16327
    5014:	31b22cc4 	addi	r6,r6,-14157
    5018:	39e28a04 	addi	r7,r7,-30168
    501c:	180b883a 	mov	r5,r3
    5020:	1009883a 	mov	r4,r2
    5024:	000bed40 	call	bed4 <__adddf3>
    5028:	8009883a 	mov	r4,r16
    502c:	1029883a 	mov	r20,r2
    5030:	1823883a 	mov	r17,r3
    5034:	000e3540 	call	e354 <__floatsidf>
    5038:	019427f4 	movhi	r6,20639
    503c:	01cff4f4 	movhi	r7,16339
    5040:	319e7ec4 	addi	r6,r6,31227
    5044:	39d104c4 	addi	r7,r7,17427
    5048:	1009883a 	mov	r4,r2
    504c:	180b883a 	mov	r5,r3
    5050:	000d2c00 	call	d2c0 <__muldf3>
    5054:	100d883a 	mov	r6,r2
    5058:	180f883a 	mov	r7,r3
    505c:	a009883a 	mov	r4,r20
    5060:	880b883a 	mov	r5,r17
    5064:	000bed40 	call	bed4 <__adddf3>
    5068:	1009883a 	mov	r4,r2
    506c:	180b883a 	mov	r5,r3
    5070:	1029883a 	mov	r20,r2
    5074:	1823883a 	mov	r17,r3
    5078:	000e2d40 	call	e2d4 <__fixdfsi>
    507c:	000d883a 	mov	r6,zero
    5080:	000f883a 	mov	r7,zero
    5084:	a009883a 	mov	r4,r20
    5088:	880b883a 	mov	r5,r17
    508c:	d8800515 	stw	r2,20(sp)
    5090:	000d1cc0 	call	d1cc <__ledf2>
    5094:	10028716 	blt	r2,zero,5ab4 <_dtoa_r+0xc88>
    5098:	d8c00517 	ldw	r3,20(sp)
    509c:	00800584 	movi	r2,22
    50a0:	10c27536 	bltu	r2,r3,5a78 <_dtoa_r+0xc4c>
    50a4:	180490fa 	slli	r2,r3,3
    50a8:	00c00074 	movhi	r3,1
    50ac:	18c54204 	addi	r3,r3,5384
    50b0:	1885883a 	add	r2,r3,r2
    50b4:	11000017 	ldw	r4,0(r2)
    50b8:	11400117 	ldw	r5,4(r2)
    50bc:	900d883a 	mov	r6,r18
    50c0:	980f883a 	mov	r7,r19
    50c4:	000d0f00 	call	d0f0 <__gedf2>
    50c8:	00828d0e 	bge	zero,r2,5b00 <_dtoa_r+0xcd4>
    50cc:	d9000517 	ldw	r4,20(sp)
    50d0:	d8000e15 	stw	zero,56(sp)
    50d4:	213fffc4 	addi	r4,r4,-1
    50d8:	d9000515 	stw	r4,20(sp)
    50dc:	b42dc83a 	sub	r22,r22,r16
    50e0:	b5bfffc4 	addi	r22,r22,-1
    50e4:	b0026f16 	blt	r22,zero,5aa4 <_dtoa_r+0xc78>
    50e8:	d8000815 	stw	zero,32(sp)
    50ec:	d9c00517 	ldw	r7,20(sp)
    50f0:	38026416 	blt	r7,zero,5a84 <_dtoa_r+0xc58>
    50f4:	b1ed883a 	add	r22,r22,r7
    50f8:	d9c00d15 	stw	r7,52(sp)
    50fc:	d8000a15 	stw	zero,40(sp)
    5100:	d9800317 	ldw	r6,12(sp)
    5104:	00800244 	movi	r2,9
    5108:	11811436 	bltu	r2,r6,555c <_dtoa_r+0x730>
    510c:	00800144 	movi	r2,5
    5110:	1184e10e 	bge	r2,r6,6498 <_dtoa_r+0x166c>
    5114:	31bfff04 	addi	r6,r6,-4
    5118:	d9800315 	stw	r6,12(sp)
    511c:	0023883a 	mov	r17,zero
    5120:	d9800317 	ldw	r6,12(sp)
    5124:	008000c4 	movi	r2,3
    5128:	30836726 	beq	r6,r2,5ec8 <_dtoa_r+0x109c>
    512c:	1183410e 	bge	r2,r6,5e34 <_dtoa_r+0x1008>
    5130:	d9c00317 	ldw	r7,12(sp)
    5134:	00800104 	movi	r2,4
    5138:	38827c26 	beq	r7,r2,5b2c <_dtoa_r+0xd00>
    513c:	00800144 	movi	r2,5
    5140:	3884c41e 	bne	r7,r2,6454 <_dtoa_r+0x1628>
    5144:	00800044 	movi	r2,1
    5148:	d8800b15 	stw	r2,44(sp)
    514c:	d8c00517 	ldw	r3,20(sp)
    5150:	d9002217 	ldw	r4,136(sp)
    5154:	1907883a 	add	r3,r3,r4
    5158:	19800044 	addi	r6,r3,1
    515c:	d8c00c15 	stw	r3,48(sp)
    5160:	d9800615 	stw	r6,24(sp)
    5164:	0183a40e 	bge	zero,r6,5ff8 <_dtoa_r+0x11cc>
    5168:	d9800617 	ldw	r6,24(sp)
    516c:	3021883a 	mov	r16,r6
    5170:	e0001115 	stw	zero,68(fp)
    5174:	008005c4 	movi	r2,23
    5178:	1184c92e 	bgeu	r2,r6,64a0 <_dtoa_r+0x1674>
    517c:	00c00044 	movi	r3,1
    5180:	00800104 	movi	r2,4
    5184:	1085883a 	add	r2,r2,r2
    5188:	11000504 	addi	r4,r2,20
    518c:	180b883a 	mov	r5,r3
    5190:	18c00044 	addi	r3,r3,1
    5194:	313ffb2e 	bgeu	r6,r4,5184 <__alt_data_end+0xff005184>
    5198:	e1401115 	stw	r5,68(fp)
    519c:	e009883a 	mov	r4,fp
    51a0:	0007cbc0 	call	7cbc <_Balloc>
    51a4:	d8800715 	stw	r2,28(sp)
    51a8:	e0801015 	stw	r2,64(fp)
    51ac:	00800384 	movi	r2,14
    51b0:	1400f736 	bltu	r2,r16,5590 <_dtoa_r+0x764>
    51b4:	8800f626 	beq	r17,zero,5590 <_dtoa_r+0x764>
    51b8:	d9c00517 	ldw	r7,20(sp)
    51bc:	01c39a0e 	bge	zero,r7,6028 <_dtoa_r+0x11fc>
    51c0:	388003cc 	andi	r2,r7,15
    51c4:	100490fa 	slli	r2,r2,3
    51c8:	382bd13a 	srai	r21,r7,4
    51cc:	00c00074 	movhi	r3,1
    51d0:	18c54204 	addi	r3,r3,5384
    51d4:	1885883a 	add	r2,r3,r2
    51d8:	a8c0040c 	andi	r3,r21,16
    51dc:	12400017 	ldw	r9,0(r2)
    51e0:	12000117 	ldw	r8,4(r2)
    51e4:	18037926 	beq	r3,zero,5fcc <_dtoa_r+0x11a0>
    51e8:	00800074 	movhi	r2,1
    51ec:	10853804 	addi	r2,r2,5344
    51f0:	11800817 	ldw	r6,32(r2)
    51f4:	11c00917 	ldw	r7,36(r2)
    51f8:	9009883a 	mov	r4,r18
    51fc:	980b883a 	mov	r5,r19
    5200:	da001715 	stw	r8,92(sp)
    5204:	da401615 	stw	r9,88(sp)
    5208:	000c7800 	call	c780 <__divdf3>
    520c:	da001717 	ldw	r8,92(sp)
    5210:	da401617 	ldw	r9,88(sp)
    5214:	ad4003cc 	andi	r21,r21,15
    5218:	040000c4 	movi	r16,3
    521c:	1023883a 	mov	r17,r2
    5220:	1829883a 	mov	r20,r3
    5224:	a8001126 	beq	r21,zero,526c <_dtoa_r+0x440>
    5228:	05c00074 	movhi	r23,1
    522c:	bdc53804 	addi	r23,r23,5344
    5230:	4805883a 	mov	r2,r9
    5234:	4007883a 	mov	r3,r8
    5238:	a980004c 	andi	r6,r21,1
    523c:	1009883a 	mov	r4,r2
    5240:	a82bd07a 	srai	r21,r21,1
    5244:	180b883a 	mov	r5,r3
    5248:	30000426 	beq	r6,zero,525c <_dtoa_r+0x430>
    524c:	b9800017 	ldw	r6,0(r23)
    5250:	b9c00117 	ldw	r7,4(r23)
    5254:	84000044 	addi	r16,r16,1
    5258:	000d2c00 	call	d2c0 <__muldf3>
    525c:	bdc00204 	addi	r23,r23,8
    5260:	a83ff51e 	bne	r21,zero,5238 <__alt_data_end+0xff005238>
    5264:	1013883a 	mov	r9,r2
    5268:	1811883a 	mov	r8,r3
    526c:	480d883a 	mov	r6,r9
    5270:	400f883a 	mov	r7,r8
    5274:	8809883a 	mov	r4,r17
    5278:	a00b883a 	mov	r5,r20
    527c:	000c7800 	call	c780 <__divdf3>
    5280:	d8800f15 	stw	r2,60(sp)
    5284:	d8c01015 	stw	r3,64(sp)
    5288:	d8c00e17 	ldw	r3,56(sp)
    528c:	18000626 	beq	r3,zero,52a8 <_dtoa_r+0x47c>
    5290:	d9000f17 	ldw	r4,60(sp)
    5294:	d9401017 	ldw	r5,64(sp)
    5298:	000d883a 	mov	r6,zero
    529c:	01cffc34 	movhi	r7,16368
    52a0:	000d1cc0 	call	d1cc <__ledf2>
    52a4:	10040b16 	blt	r2,zero,62d4 <_dtoa_r+0x14a8>
    52a8:	8009883a 	mov	r4,r16
    52ac:	000e3540 	call	e354 <__floatsidf>
    52b0:	d9800f17 	ldw	r6,60(sp)
    52b4:	d9c01017 	ldw	r7,64(sp)
    52b8:	1009883a 	mov	r4,r2
    52bc:	180b883a 	mov	r5,r3
    52c0:	000d2c00 	call	d2c0 <__muldf3>
    52c4:	000d883a 	mov	r6,zero
    52c8:	01d00734 	movhi	r7,16412
    52cc:	1009883a 	mov	r4,r2
    52d0:	180b883a 	mov	r5,r3
    52d4:	000bed40 	call	bed4 <__adddf3>
    52d8:	1021883a 	mov	r16,r2
    52dc:	d8800617 	ldw	r2,24(sp)
    52e0:	047f3034 	movhi	r17,64704
    52e4:	1c63883a 	add	r17,r3,r17
    52e8:	10031826 	beq	r2,zero,5f4c <_dtoa_r+0x1120>
    52ec:	d8c00517 	ldw	r3,20(sp)
    52f0:	db000617 	ldw	r12,24(sp)
    52f4:	d8c01315 	stw	r3,76(sp)
    52f8:	d9000b17 	ldw	r4,44(sp)
    52fc:	20038f26 	beq	r4,zero,613c <_dtoa_r+0x1310>
    5300:	60bfffc4 	addi	r2,r12,-1
    5304:	100490fa 	slli	r2,r2,3
    5308:	00c00074 	movhi	r3,1
    530c:	18c54204 	addi	r3,r3,5384
    5310:	1885883a 	add	r2,r3,r2
    5314:	11800017 	ldw	r6,0(r2)
    5318:	11c00117 	ldw	r7,4(r2)
    531c:	d8800717 	ldw	r2,28(sp)
    5320:	0009883a 	mov	r4,zero
    5324:	014ff834 	movhi	r5,16352
    5328:	db001615 	stw	r12,88(sp)
    532c:	15c00044 	addi	r23,r2,1
    5330:	000c7800 	call	c780 <__divdf3>
    5334:	800d883a 	mov	r6,r16
    5338:	880f883a 	mov	r7,r17
    533c:	1009883a 	mov	r4,r2
    5340:	180b883a 	mov	r5,r3
    5344:	000d9d80 	call	d9d8 <__subdf3>
    5348:	d9401017 	ldw	r5,64(sp)
    534c:	d9000f17 	ldw	r4,60(sp)
    5350:	102b883a 	mov	r21,r2
    5354:	d8c01215 	stw	r3,72(sp)
    5358:	000e2d40 	call	e2d4 <__fixdfsi>
    535c:	1009883a 	mov	r4,r2
    5360:	1029883a 	mov	r20,r2
    5364:	000e3540 	call	e354 <__floatsidf>
    5368:	d9000f17 	ldw	r4,60(sp)
    536c:	d9401017 	ldw	r5,64(sp)
    5370:	100d883a 	mov	r6,r2
    5374:	180f883a 	mov	r7,r3
    5378:	000d9d80 	call	d9d8 <__subdf3>
    537c:	1823883a 	mov	r17,r3
    5380:	d8c00717 	ldw	r3,28(sp)
    5384:	d9401217 	ldw	r5,72(sp)
    5388:	a2000c04 	addi	r8,r20,48
    538c:	1021883a 	mov	r16,r2
    5390:	1a000005 	stb	r8,0(r3)
    5394:	800d883a 	mov	r6,r16
    5398:	880f883a 	mov	r7,r17
    539c:	a809883a 	mov	r4,r21
    53a0:	4029883a 	mov	r20,r8
    53a4:	000d0f00 	call	d0f0 <__gedf2>
    53a8:	00841d16 	blt	zero,r2,6420 <_dtoa_r+0x15f4>
    53ac:	800d883a 	mov	r6,r16
    53b0:	880f883a 	mov	r7,r17
    53b4:	0009883a 	mov	r4,zero
    53b8:	014ffc34 	movhi	r5,16368
    53bc:	000d9d80 	call	d9d8 <__subdf3>
    53c0:	d9401217 	ldw	r5,72(sp)
    53c4:	100d883a 	mov	r6,r2
    53c8:	180f883a 	mov	r7,r3
    53cc:	a809883a 	mov	r4,r21
    53d0:	000d0f00 	call	d0f0 <__gedf2>
    53d4:	db001617 	ldw	r12,88(sp)
    53d8:	00840e16 	blt	zero,r2,6414 <_dtoa_r+0x15e8>
    53dc:	00800044 	movi	r2,1
    53e0:	13006b0e 	bge	r2,r12,5590 <_dtoa_r+0x764>
    53e4:	d9000717 	ldw	r4,28(sp)
    53e8:	dd800f15 	stw	r22,60(sp)
    53ec:	dcc01015 	stw	r19,64(sp)
    53f0:	2319883a 	add	r12,r4,r12
    53f4:	dcc01217 	ldw	r19,72(sp)
    53f8:	602d883a 	mov	r22,r12
    53fc:	dc801215 	stw	r18,72(sp)
    5400:	b825883a 	mov	r18,r23
    5404:	00000906 	br	542c <_dtoa_r+0x600>
    5408:	000d9d80 	call	d9d8 <__subdf3>
    540c:	a80d883a 	mov	r6,r21
    5410:	980f883a 	mov	r7,r19
    5414:	1009883a 	mov	r4,r2
    5418:	180b883a 	mov	r5,r3
    541c:	000d1cc0 	call	d1cc <__ledf2>
    5420:	1003e816 	blt	r2,zero,63c4 <_dtoa_r+0x1598>
    5424:	b825883a 	mov	r18,r23
    5428:	bd83e926 	beq	r23,r22,63d0 <_dtoa_r+0x15a4>
    542c:	a809883a 	mov	r4,r21
    5430:	980b883a 	mov	r5,r19
    5434:	000d883a 	mov	r6,zero
    5438:	01d00934 	movhi	r7,16420
    543c:	000d2c00 	call	d2c0 <__muldf3>
    5440:	000d883a 	mov	r6,zero
    5444:	01d00934 	movhi	r7,16420
    5448:	8009883a 	mov	r4,r16
    544c:	880b883a 	mov	r5,r17
    5450:	102b883a 	mov	r21,r2
    5454:	1827883a 	mov	r19,r3
    5458:	000d2c00 	call	d2c0 <__muldf3>
    545c:	180b883a 	mov	r5,r3
    5460:	1009883a 	mov	r4,r2
    5464:	1821883a 	mov	r16,r3
    5468:	1023883a 	mov	r17,r2
    546c:	000e2d40 	call	e2d4 <__fixdfsi>
    5470:	1009883a 	mov	r4,r2
    5474:	1029883a 	mov	r20,r2
    5478:	000e3540 	call	e354 <__floatsidf>
    547c:	8809883a 	mov	r4,r17
    5480:	800b883a 	mov	r5,r16
    5484:	100d883a 	mov	r6,r2
    5488:	180f883a 	mov	r7,r3
    548c:	000d9d80 	call	d9d8 <__subdf3>
    5490:	a5000c04 	addi	r20,r20,48
    5494:	a80d883a 	mov	r6,r21
    5498:	980f883a 	mov	r7,r19
    549c:	1009883a 	mov	r4,r2
    54a0:	180b883a 	mov	r5,r3
    54a4:	95000005 	stb	r20,0(r18)
    54a8:	1021883a 	mov	r16,r2
    54ac:	1823883a 	mov	r17,r3
    54b0:	000d1cc0 	call	d1cc <__ledf2>
    54b4:	bdc00044 	addi	r23,r23,1
    54b8:	800d883a 	mov	r6,r16
    54bc:	880f883a 	mov	r7,r17
    54c0:	0009883a 	mov	r4,zero
    54c4:	014ffc34 	movhi	r5,16368
    54c8:	103fcf0e 	bge	r2,zero,5408 <__alt_data_end+0xff005408>
    54cc:	d8c01317 	ldw	r3,76(sp)
    54d0:	d8c00515 	stw	r3,20(sp)
    54d4:	d9400917 	ldw	r5,36(sp)
    54d8:	e009883a 	mov	r4,fp
    54dc:	0007d640 	call	7d64 <_Bfree>
    54e0:	d9000517 	ldw	r4,20(sp)
    54e4:	d9802317 	ldw	r6,140(sp)
    54e8:	d9c02517 	ldw	r7,148(sp)
    54ec:	b8000005 	stb	zero,0(r23)
    54f0:	20800044 	addi	r2,r4,1
    54f4:	30800015 	stw	r2,0(r6)
    54f8:	3802aa26 	beq	r7,zero,5fa4 <_dtoa_r+0x1178>
    54fc:	3dc00015 	stw	r23,0(r7)
    5500:	d8800717 	ldw	r2,28(sp)
    5504:	003e7906 	br	4eec <__alt_data_end+0xff004eec>
    5508:	00800434 	movhi	r2,16
    550c:	10bfffc4 	addi	r2,r2,-1
    5510:	88a2703a 	and	r17,r17,r2
    5514:	883e851e 	bne	r17,zero,4f2c <__alt_data_end+0xff004f2c>
    5518:	00800074 	movhi	r2,1
    551c:	10852304 	addi	r2,r2,5260
    5520:	003e8406 	br	4f34 <__alt_data_end+0xff004f34>
    5524:	10c00204 	addi	r3,r2,8
    5528:	003e8706 	br	4f48 <__alt_data_end+0xff004f48>
    552c:	01400434 	movhi	r5,16
    5530:	297fffc4 	addi	r5,r5,-1
    5534:	994a703a 	and	r5,r19,r5
    5538:	9009883a 	mov	r4,r18
    553c:	843f0044 	addi	r16,r16,-1023
    5540:	294ffc34 	orhi	r5,r5,16368
    5544:	dd800217 	ldw	r22,8(sp)
    5548:	d8001115 	stw	zero,68(sp)
    554c:	003ea506 	br	4fe4 <__alt_data_end+0xff004fe4>
    5550:	00800074 	movhi	r2,1
    5554:	10851a04 	addi	r2,r2,5224
    5558:	003e6406 	br	4eec <__alt_data_end+0xff004eec>
    555c:	e0001115 	stw	zero,68(fp)
    5560:	000b883a 	mov	r5,zero
    5564:	e009883a 	mov	r4,fp
    5568:	0007cbc0 	call	7cbc <_Balloc>
    556c:	01bfffc4 	movi	r6,-1
    5570:	01c00044 	movi	r7,1
    5574:	d8800715 	stw	r2,28(sp)
    5578:	d9800c15 	stw	r6,48(sp)
    557c:	e0801015 	stw	r2,64(fp)
    5580:	d8000315 	stw	zero,12(sp)
    5584:	d9c00b15 	stw	r7,44(sp)
    5588:	d9800615 	stw	r6,24(sp)
    558c:	d8002215 	stw	zero,136(sp)
    5590:	d8800117 	ldw	r2,4(sp)
    5594:	10008916 	blt	r2,zero,57bc <_dtoa_r+0x990>
    5598:	d9000517 	ldw	r4,20(sp)
    559c:	00c00384 	movi	r3,14
    55a0:	19008616 	blt	r3,r4,57bc <_dtoa_r+0x990>
    55a4:	200490fa 	slli	r2,r4,3
    55a8:	00c00074 	movhi	r3,1
    55ac:	d9802217 	ldw	r6,136(sp)
    55b0:	18c54204 	addi	r3,r3,5384
    55b4:	1885883a 	add	r2,r3,r2
    55b8:	14000017 	ldw	r16,0(r2)
    55bc:	14400117 	ldw	r17,4(r2)
    55c0:	30016316 	blt	r6,zero,5b50 <_dtoa_r+0xd24>
    55c4:	800d883a 	mov	r6,r16
    55c8:	880f883a 	mov	r7,r17
    55cc:	9009883a 	mov	r4,r18
    55d0:	980b883a 	mov	r5,r19
    55d4:	000c7800 	call	c780 <__divdf3>
    55d8:	180b883a 	mov	r5,r3
    55dc:	1009883a 	mov	r4,r2
    55e0:	000e2d40 	call	e2d4 <__fixdfsi>
    55e4:	1009883a 	mov	r4,r2
    55e8:	102b883a 	mov	r21,r2
    55ec:	000e3540 	call	e354 <__floatsidf>
    55f0:	800d883a 	mov	r6,r16
    55f4:	880f883a 	mov	r7,r17
    55f8:	1009883a 	mov	r4,r2
    55fc:	180b883a 	mov	r5,r3
    5600:	000d2c00 	call	d2c0 <__muldf3>
    5604:	100d883a 	mov	r6,r2
    5608:	180f883a 	mov	r7,r3
    560c:	9009883a 	mov	r4,r18
    5610:	980b883a 	mov	r5,r19
    5614:	000d9d80 	call	d9d8 <__subdf3>
    5618:	d9c00717 	ldw	r7,28(sp)
    561c:	1009883a 	mov	r4,r2
    5620:	a8800c04 	addi	r2,r21,48
    5624:	38800005 	stb	r2,0(r7)
    5628:	3dc00044 	addi	r23,r7,1
    562c:	d9c00617 	ldw	r7,24(sp)
    5630:	01800044 	movi	r6,1
    5634:	180b883a 	mov	r5,r3
    5638:	2005883a 	mov	r2,r4
    563c:	39803826 	beq	r7,r6,5720 <_dtoa_r+0x8f4>
    5640:	000d883a 	mov	r6,zero
    5644:	01d00934 	movhi	r7,16420
    5648:	000d2c00 	call	d2c0 <__muldf3>
    564c:	000d883a 	mov	r6,zero
    5650:	000f883a 	mov	r7,zero
    5654:	1009883a 	mov	r4,r2
    5658:	180b883a 	mov	r5,r3
    565c:	1025883a 	mov	r18,r2
    5660:	1827883a 	mov	r19,r3
    5664:	000d0680 	call	d068 <__eqdf2>
    5668:	103f9a26 	beq	r2,zero,54d4 <__alt_data_end+0xff0054d4>
    566c:	d9c00617 	ldw	r7,24(sp)
    5670:	d8c00717 	ldw	r3,28(sp)
    5674:	b829883a 	mov	r20,r23
    5678:	38bfffc4 	addi	r2,r7,-1
    567c:	18ad883a 	add	r22,r3,r2
    5680:	00000a06 	br	56ac <_dtoa_r+0x880>
    5684:	000d2c00 	call	d2c0 <__muldf3>
    5688:	000d883a 	mov	r6,zero
    568c:	000f883a 	mov	r7,zero
    5690:	1009883a 	mov	r4,r2
    5694:	180b883a 	mov	r5,r3
    5698:	1025883a 	mov	r18,r2
    569c:	1827883a 	mov	r19,r3
    56a0:	b829883a 	mov	r20,r23
    56a4:	000d0680 	call	d068 <__eqdf2>
    56a8:	103f8a26 	beq	r2,zero,54d4 <__alt_data_end+0xff0054d4>
    56ac:	800d883a 	mov	r6,r16
    56b0:	880f883a 	mov	r7,r17
    56b4:	9009883a 	mov	r4,r18
    56b8:	980b883a 	mov	r5,r19
    56bc:	000c7800 	call	c780 <__divdf3>
    56c0:	180b883a 	mov	r5,r3
    56c4:	1009883a 	mov	r4,r2
    56c8:	000e2d40 	call	e2d4 <__fixdfsi>
    56cc:	1009883a 	mov	r4,r2
    56d0:	102b883a 	mov	r21,r2
    56d4:	000e3540 	call	e354 <__floatsidf>
    56d8:	800d883a 	mov	r6,r16
    56dc:	880f883a 	mov	r7,r17
    56e0:	1009883a 	mov	r4,r2
    56e4:	180b883a 	mov	r5,r3
    56e8:	000d2c00 	call	d2c0 <__muldf3>
    56ec:	100d883a 	mov	r6,r2
    56f0:	180f883a 	mov	r7,r3
    56f4:	9009883a 	mov	r4,r18
    56f8:	980b883a 	mov	r5,r19
    56fc:	000d9d80 	call	d9d8 <__subdf3>
    5700:	aa000c04 	addi	r8,r21,48
    5704:	a2000005 	stb	r8,0(r20)
    5708:	000d883a 	mov	r6,zero
    570c:	01d00934 	movhi	r7,16420
    5710:	1009883a 	mov	r4,r2
    5714:	180b883a 	mov	r5,r3
    5718:	a5c00044 	addi	r23,r20,1
    571c:	b53fd91e 	bne	r22,r20,5684 <__alt_data_end+0xff005684>
    5720:	100d883a 	mov	r6,r2
    5724:	180f883a 	mov	r7,r3
    5728:	1009883a 	mov	r4,r2
    572c:	180b883a 	mov	r5,r3
    5730:	000bed40 	call	bed4 <__adddf3>
    5734:	100d883a 	mov	r6,r2
    5738:	180f883a 	mov	r7,r3
    573c:	8009883a 	mov	r4,r16
    5740:	880b883a 	mov	r5,r17
    5744:	1027883a 	mov	r19,r2
    5748:	1825883a 	mov	r18,r3
    574c:	000d1cc0 	call	d1cc <__ledf2>
    5750:	10000816 	blt	r2,zero,5774 <_dtoa_r+0x948>
    5754:	980d883a 	mov	r6,r19
    5758:	900f883a 	mov	r7,r18
    575c:	8009883a 	mov	r4,r16
    5760:	880b883a 	mov	r5,r17
    5764:	000d0680 	call	d068 <__eqdf2>
    5768:	103f5a1e 	bne	r2,zero,54d4 <__alt_data_end+0xff0054d4>
    576c:	ad40004c 	andi	r21,r21,1
    5770:	a83f5826 	beq	r21,zero,54d4 <__alt_data_end+0xff0054d4>
    5774:	bd3fffc3 	ldbu	r20,-1(r23)
    5778:	b8bfffc4 	addi	r2,r23,-1
    577c:	1007883a 	mov	r3,r2
    5780:	01400e44 	movi	r5,57
    5784:	d9800717 	ldw	r6,28(sp)
    5788:	00000506 	br	57a0 <_dtoa_r+0x974>
    578c:	18ffffc4 	addi	r3,r3,-1
    5790:	11824726 	beq	r2,r6,60b0 <_dtoa_r+0x1284>
    5794:	1d000003 	ldbu	r20,0(r3)
    5798:	102f883a 	mov	r23,r2
    579c:	10bfffc4 	addi	r2,r2,-1
    57a0:	a1003fcc 	andi	r4,r20,255
    57a4:	2100201c 	xori	r4,r4,128
    57a8:	213fe004 	addi	r4,r4,-128
    57ac:	217ff726 	beq	r4,r5,578c <__alt_data_end+0xff00578c>
    57b0:	a2000044 	addi	r8,r20,1
    57b4:	12000005 	stb	r8,0(r2)
    57b8:	003f4606 	br	54d4 <__alt_data_end+0xff0054d4>
    57bc:	d9000b17 	ldw	r4,44(sp)
    57c0:	2000c826 	beq	r4,zero,5ae4 <_dtoa_r+0xcb8>
    57c4:	d9800317 	ldw	r6,12(sp)
    57c8:	00c00044 	movi	r3,1
    57cc:	1980f90e 	bge	r3,r6,5bb4 <_dtoa_r+0xd88>
    57d0:	d8800617 	ldw	r2,24(sp)
    57d4:	d8c00a17 	ldw	r3,40(sp)
    57d8:	157fffc4 	addi	r21,r2,-1
